

Microchip MPLAB XC8 Assembler V2.36 build 20220127204148 
                                                                                               Tue Aug 01 21:43:51 2023

Microchip MPLAB XC8 C Compiler v2.36 (Free license) build 20220127204148 Og1 
     1                           	processor	16F877A
     2                           	pagewidth 120
     3                           	opt	flic
     4                           	psect	idataBANK0,global,class=CODE,delta=2,noexec
     5                           	psect	stringtext,global,reloc=256,class=STRCODE,delta=2,noexec
     6                           	psect	cinit,global,class=CODE,merge=1,delta=2
     7                           	psect	bssBANK0,global,class=BANK0,space=1,delta=1,noexec
     8                           	psect	dataBANK0,global,class=BANK0,space=1,delta=1,noexec
     9                           	psect	cstackCOMMON,global,class=COMMON,space=1,delta=1,noexec
    10                           	psect	cstackBANK0,global,class=BANK0,space=1,delta=1,noexec
    11                           	psect	maintext,global,class=CODE,split=1,delta=2
    12                           	psect	text1,local,class=CODE,merge=1,delta=2
    13                           	psect	text2,local,class=CODE,merge=1,delta=2
    14                           	psect	text3,local,class=CODE,merge=1,delta=2,group=1
    15                           	psect	text4,local,class=CODE,merge=1,delta=2,group=1
    16                           	psect	text5,local,class=CODE,merge=1,delta=2,group=1
    17                           	psect	text6,local,class=CODE,merge=1,delta=2,group=1
    18                           	psect	text7,local,class=CODE,merge=1,delta=2
    19                           	psect	text8,local,class=CODE,merge=1,delta=2
    20                           	psect	text9,local,class=CODE,merge=1,delta=2
    21                           	psect	text10,local,class=CODE,merge=1,delta=2
    22                           	psect	text11,local,class=CODE,merge=1,delta=2
    23                           	psect	text12,local,class=CODE,merge=1,delta=2
    24                           	psect	text13,local,class=CODE,merge=1,delta=2
    25                           	psect	text14,local,class=CODE,merge=1,delta=2
    26                           	psect	text15,local,class=CODE,merge=1,delta=2
    27                           	psect	text16,local,class=CODE,merge=1,delta=2,group=1
    28                           	psect	text17,local,class=CODE,merge=1,delta=2,group=1
    29                           	psect	idloc,global,abs,ovrld,class=IDLOC,space=5,delta=2,noexec
    30                           	psect	config,global,abs,ovrld,class=CONFIG,space=4,delta=2,noexec
    31                           	dabs	1,0x7E,2
    32  0000                     
    33                           ; Version 2.40
    34                           ; Generated 17/11/2021 GMT
    35                           ; 
    36                           ; Copyright © 2021, Microchip Technology Inc. and its subsidiaries ("Microchip")
    37                           ; All rights reserved.
    38                           ; 
    39                           ; This software is developed by Microchip Technology Inc. and its subsidiaries ("Microch
      +                          ip").
    40                           ; 
    41                           ; Redistribution and use in source and binary forms, with or without modification, are
    42                           ; permitted provided that the following conditions are met:
    43                           ; 
    44                           ;     1. Redistributions of source code must retain the above copyright notice, this lis
      +                          t of
    45                           ;        conditions and the following disclaimer.
    46                           ; 
    47                           ;     2. Redistributions in binary form must reproduce the above copyright notice, this 
      +                          list
    48                           ;        of conditions and the following disclaimer in the documentation and/or other
    49                           ;        materials provided with the distribution. Publication is not required when
    50                           ;        this file is used in an embedded application.
    51                           ; 
    52                           ;     3. Microchip's name may not be used to endorse or promote products derived from th
      +                          is
    53                           ;        software without specific prior written permission.
    54                           ; 
    55                           ; THIS SOFTWARE IS PROVIDED BY MICROCHIP "AS IS" AND ANY EXPRESS OR IMPLIED WARRANTIES,
    56                           ; INCLUDING, BUT NOT LIMITED TO, THE IMPLIED WARRANTIES OF MERCHANTABILITY AND FITNESS F
      +                          OR
    57                           ; PURPOSE ARE DISCLAIMED.  IN NO EVENT SHALL MICROCHIP BE LIABLE FOR ANY DIRECT, INDIREC
      +                          T,
    58                           ; INCIDENTAL, SPECIAL, EXEMPLARY, OR CONSEQUENTIAL DAMAGES (INCLUDING BUT NOT LIMITED TO
    59                           ; PROCUREMENT OF SUBSTITUTE GOODS OR SERVICES; LOSS OF USE, DATA OR PROFITS; OR BUSINESS
    60                           ; INTERRUPTION) HOWSOEVER CAUSED AND ON ANY THEORY OF LIABILITY, WHETHER IN CONTRACT, ST
      +                          RICT
    61                           ; LIABILITY, OR TORT (INCLUDING NEGLIGENCE OR OTHERWISE) ARISING IN ANY WAY OUT OF THE U
      +                          SE OF
    62                           ; THIS SOFTWARE, EVEN IF ADVISED OF THE POSSIBILITY OF SUCH DAMAGE.
    63                           ; 
    64                           ; 
    65                           ; Code-generator required, PIC16F877A Definitions
    66                           ; 
    67                           ; SFR Addresses
    68  0000                     	;# 
    69  0001                     	;# 
    70  0002                     	;# 
    71  0003                     	;# 
    72  0004                     	;# 
    73  0005                     	;# 
    74  0006                     	;# 
    75  0007                     	;# 
    76  0008                     	;# 
    77  0009                     	;# 
    78  000A                     	;# 
    79  000B                     	;# 
    80  000C                     	;# 
    81  000D                     	;# 
    82  000E                     	;# 
    83  000E                     	;# 
    84  000F                     	;# 
    85  0010                     	;# 
    86  0011                     	;# 
    87  0012                     	;# 
    88  0013                     	;# 
    89  0014                     	;# 
    90  0015                     	;# 
    91  0015                     	;# 
    92  0016                     	;# 
    93  0017                     	;# 
    94  0018                     	;# 
    95  0019                     	;# 
    96  001A                     	;# 
    97  001B                     	;# 
    98  001B                     	;# 
    99  001C                     	;# 
   100  001D                     	;# 
   101  001E                     	;# 
   102  001F                     	;# 
   103  0081                     	;# 
   104  0085                     	;# 
   105  0086                     	;# 
   106  0087                     	;# 
   107  0088                     	;# 
   108  0089                     	;# 
   109  008C                     	;# 
   110  008D                     	;# 
   111  008E                     	;# 
   112  0091                     	;# 
   113  0092                     	;# 
   114  0093                     	;# 
   115  0094                     	;# 
   116  0098                     	;# 
   117  0099                     	;# 
   118  009C                     	;# 
   119  009D                     	;# 
   120  009E                     	;# 
   121  009F                     	;# 
   122  010C                     	;# 
   123  010D                     	;# 
   124  010E                     	;# 
   125  010F                     	;# 
   126  018C                     	;# 
   127  018D                     	;# 
   128  0000                     	;# 
   129  0001                     	;# 
   130  0002                     	;# 
   131  0003                     	;# 
   132  0004                     	;# 
   133  0005                     	;# 
   134  0006                     	;# 
   135  0007                     	;# 
   136  0008                     	;# 
   137  0009                     	;# 
   138  000A                     	;# 
   139  000B                     	;# 
   140  000C                     	;# 
   141  000D                     	;# 
   142  000E                     	;# 
   143  000E                     	;# 
   144  000F                     	;# 
   145  0010                     	;# 
   146  0011                     	;# 
   147  0012                     	;# 
   148  0013                     	;# 
   149  0014                     	;# 
   150  0015                     	;# 
   151  0015                     	;# 
   152  0016                     	;# 
   153  0017                     	;# 
   154  0018                     	;# 
   155  0019                     	;# 
   156  001A                     	;# 
   157  001B                     	;# 
   158  001B                     	;# 
   159  001C                     	;# 
   160  001D                     	;# 
   161  001E                     	;# 
   162  001F                     	;# 
   163  0081                     	;# 
   164  0085                     	;# 
   165  0086                     	;# 
   166  0087                     	;# 
   167  0088                     	;# 
   168  0089                     	;# 
   169  008C                     	;# 
   170  008D                     	;# 
   171  008E                     	;# 
   172  0091                     	;# 
   173  0092                     	;# 
   174  0093                     	;# 
   175  0094                     	;# 
   176  0098                     	;# 
   177  0099                     	;# 
   178  009C                     	;# 
   179  009D                     	;# 
   180  009E                     	;# 
   181  009F                     	;# 
   182  010C                     	;# 
   183  010D                     	;# 
   184  010E                     	;# 
   185  010F                     	;# 
   186  018C                     	;# 
   187  018D                     	;# 
   188  0000                     	;# 
   189  0001                     	;# 
   190  0002                     	;# 
   191  0003                     	;# 
   192  0004                     	;# 
   193  0005                     	;# 
   194  0006                     	;# 
   195  0007                     	;# 
   196  0008                     	;# 
   197  0009                     	;# 
   198  000A                     	;# 
   199  000B                     	;# 
   200  000C                     	;# 
   201  000D                     	;# 
   202  000E                     	;# 
   203  000E                     	;# 
   204  000F                     	;# 
   205  0010                     	;# 
   206  0011                     	;# 
   207  0012                     	;# 
   208  0013                     	;# 
   209  0014                     	;# 
   210  0015                     	;# 
   211  0015                     	;# 
   212  0016                     	;# 
   213  0017                     	;# 
   214  0018                     	;# 
   215  0019                     	;# 
   216  001A                     	;# 
   217  001B                     	;# 
   218  001B                     	;# 
   219  001C                     	;# 
   220  001D                     	;# 
   221  001E                     	;# 
   222  001F                     	;# 
   223  0081                     	;# 
   224  0085                     	;# 
   225  0086                     	;# 
   226  0087                     	;# 
   227  0088                     	;# 
   228  0089                     	;# 
   229  008C                     	;# 
   230  008D                     	;# 
   231  008E                     	;# 
   232  0091                     	;# 
   233  0092                     	;# 
   234  0093                     	;# 
   235  0094                     	;# 
   236  0098                     	;# 
   237  0099                     	;# 
   238  009C                     	;# 
   239  009D                     	;# 
   240  009E                     	;# 
   241  009F                     	;# 
   242  010C                     	;# 
   243  010D                     	;# 
   244  010E                     	;# 
   245  010F                     	;# 
   246  018C                     	;# 
   247  018D                     	;# 
   248                           
   249                           	psect	idataBANK0
   250  01B4                     __pidataBANK0:
   251                           
   252                           ;initializer for _wrap
   253  01B4  3401               	retlw	1
   254                           
   255                           ;initializer for _y_pos
   256  01B5  3401               	retlw	1
   257                           
   258                           ;initializer for _x_pos
   259  01B6  3401               	retlw	1
   260                           
   261                           	psect	stringtext
   262  0800                     __pstringtext:
   263  0800                     stringtab:
   264  0800                     __stringtab:
   265                           
   266                           ;	String table - string pointers are 2 bytes each
   267  0800  1BFF               	btfsc	btemp+1,7
   268  0801  280A               	ljmp	stringcode
   269  0802  1383               	bcf	3,7
   270  0803  187F               	btfsc	btemp+1,0
   271  0804  1783               	bsf	3,7
   272  0805  0800               	movf	0,w
   273  0806  0A84               	incf	4,f
   274  0807  1903               	skipnz
   275  0808  0AFF               	incf	btemp+1,f
   276  0809  0008               	return
   277  080A                     stringcode:
   278  080A  087F               	movf	btemp+1,w
   279  080B  397F               	andlw	127
   280  080C  008A               	movwf	10
   281  080D  0804               	movf	4,w
   282  080E  0A84               	incf	4,f
   283  080F  1903               	skipnz
   284  0810  0AFF               	incf	btemp+1,f
   285  0811  0082               	movwf	2
   286  0812                     __stringbase:
   287  0812                     __end_of__stringtab:
   288  0812                     _Font:
   289  0812  3400               	retlw	0
   290  0813  3400               	retlw	0
   291  0814  3400               	retlw	0
   292  0815  3400               	retlw	0
   293  0816  3400               	retlw	0
   294  0817  3400               	retlw	0
   295  0818  3400               	retlw	0
   296  0819  345F               	retlw	95
   297  081A  3400               	retlw	0
   298  081B  3400               	retlw	0
   299  081C  3400               	retlw	0
   300  081D  3407               	retlw	7
   301  081E  3400               	retlw	0
   302  081F  3407               	retlw	7
   303  0820  3400               	retlw	0
   304  0821  3414               	retlw	20
   305  0822  347F               	retlw	127
   306  0823  3414               	retlw	20
   307  0824  347F               	retlw	127
   308  0825  3414               	retlw	20
   309  0826  3424               	retlw	36
   310  0827  342A               	retlw	42
   311  0828  347F               	retlw	127
   312  0829  342A               	retlw	42
   313  082A  3412               	retlw	18
   314  082B  3423               	retlw	35
   315  082C  3413               	retlw	19
   316  082D  3408               	retlw	8
   317  082E  3464               	retlw	100
   318  082F  3462               	retlw	98
   319  0830  3436               	retlw	54
   320  0831  3449               	retlw	73
   321  0832  3456               	retlw	86
   322  0833  3420               	retlw	32
   323  0834  3450               	retlw	80
   324  0835  3400               	retlw	0
   325  0836  3408               	retlw	8
   326  0837  3407               	retlw	7
   327  0838  3403               	retlw	3
   328  0839  3400               	retlw	0
   329  083A  3400               	retlw	0
   330  083B  341C               	retlw	28
   331  083C  3422               	retlw	34
   332  083D  3441               	retlw	65
   333  083E  3400               	retlw	0
   334  083F  3400               	retlw	0
   335  0840  3441               	retlw	65
   336  0841  3422               	retlw	34
   337  0842  341C               	retlw	28
   338  0843  3400               	retlw	0
   339  0844  342A               	retlw	42
   340  0845  341C               	retlw	28
   341  0846  347F               	retlw	127
   342  0847  341C               	retlw	28
   343  0848  342A               	retlw	42
   344  0849  3408               	retlw	8
   345  084A  3408               	retlw	8
   346  084B  343E               	retlw	62
   347  084C  3408               	retlw	8
   348  084D  3408               	retlw	8
   349  084E  3400               	retlw	0
   350  084F  3480               	retlw	128
   351  0850  3470               	retlw	112
   352  0851  3430               	retlw	48
   353  0852  3400               	retlw	0
   354  0853  3408               	retlw	8
   355  0854  3408               	retlw	8
   356  0855  3408               	retlw	8
   357  0856  3408               	retlw	8
   358  0857  3408               	retlw	8
   359  0858  3400               	retlw	0
   360  0859  3400               	retlw	0
   361  085A  3460               	retlw	96
   362  085B  3460               	retlw	96
   363  085C  3400               	retlw	0
   364  085D  3420               	retlw	32
   365  085E  3410               	retlw	16
   366  085F  3408               	retlw	8
   367  0860  3404               	retlw	4
   368  0861  3402               	retlw	2
   369  0862  343E               	retlw	62
   370  0863  3451               	retlw	81
   371  0864  3449               	retlw	73
   372  0865  3445               	retlw	69
   373  0866  343E               	retlw	62
   374  0867  3400               	retlw	0
   375  0868  3442               	retlw	66
   376  0869  347F               	retlw	127
   377  086A  3440               	retlw	64
   378  086B  3400               	retlw	0
   379  086C  3472               	retlw	114
   380  086D  3449               	retlw	73
   381  086E  3449               	retlw	73
   382  086F  3449               	retlw	73
   383  0870  3446               	retlw	70
   384  0871  3421               	retlw	33
   385  0872  3441               	retlw	65
   386  0873  3449               	retlw	73
   387  0874  344D               	retlw	77
   388  0875  3433               	retlw	51
   389  0876  3418               	retlw	24
   390  0877  3414               	retlw	20
   391  0878  3412               	retlw	18
   392  0879  347F               	retlw	127
   393  087A  3410               	retlw	16
   394  087B  3427               	retlw	39
   395  087C  3445               	retlw	69
   396  087D  3445               	retlw	69
   397  087E  3445               	retlw	69
   398  087F  3439               	retlw	57
   399  0880  343C               	retlw	60
   400  0881  344A               	retlw	74
   401  0882  3449               	retlw	73
   402  0883  3449               	retlw	73
   403  0884  3431               	retlw	49
   404  0885  3441               	retlw	65
   405  0886  3421               	retlw	33
   406  0887  3411               	retlw	17
   407  0888  3409               	retlw	9
   408  0889  3407               	retlw	7
   409  088A  3436               	retlw	54
   410  088B  3449               	retlw	73
   411  088C  3449               	retlw	73
   412  088D  3449               	retlw	73
   413  088E  3436               	retlw	54
   414  088F  3446               	retlw	70
   415  0890  3449               	retlw	73
   416  0891  3449               	retlw	73
   417  0892  3429               	retlw	41
   418  0893  341E               	retlw	30
   419  0894  3400               	retlw	0
   420  0895  3400               	retlw	0
   421  0896  3414               	retlw	20
   422  0897  3400               	retlw	0
   423  0898  3400               	retlw	0
   424  0899  3400               	retlw	0
   425  089A  3440               	retlw	64
   426  089B  3434               	retlw	52
   427  089C  3400               	retlw	0
   428  089D  3400               	retlw	0
   429  089E  3400               	retlw	0
   430  089F  3408               	retlw	8
   431  08A0  3414               	retlw	20
   432  08A1  3422               	retlw	34
   433  08A2  3441               	retlw	65
   434  08A3  3414               	retlw	20
   435  08A4  3414               	retlw	20
   436  08A5  3414               	retlw	20
   437  08A6  3414               	retlw	20
   438  08A7  3414               	retlw	20
   439  08A8  3400               	retlw	0
   440  08A9  3441               	retlw	65
   441  08AA  3422               	retlw	34
   442  08AB  3414               	retlw	20
   443  08AC  3408               	retlw	8
   444  08AD  3402               	retlw	2
   445  08AE  3401               	retlw	1
   446  08AF  3459               	retlw	89
   447  08B0  3409               	retlw	9
   448  08B1  3406               	retlw	6
   449  08B2  343E               	retlw	62
   450  08B3  3441               	retlw	65
   451  08B4  345D               	retlw	93
   452  08B5  3459               	retlw	89
   453  08B6  344E               	retlw	78
   454  08B7  347C               	retlw	124
   455  08B8  3412               	retlw	18
   456  08B9  3411               	retlw	17
   457  08BA  3412               	retlw	18
   458  08BB  347C               	retlw	124
   459  08BC  347F               	retlw	127
   460  08BD  3449               	retlw	73
   461  08BE  3449               	retlw	73
   462  08BF  3449               	retlw	73
   463  08C0  3436               	retlw	54
   464  08C1  343E               	retlw	62
   465  08C2  3441               	retlw	65
   466  08C3  3441               	retlw	65
   467  08C4  3441               	retlw	65
   468  08C5  3422               	retlw	34
   469  08C6  347F               	retlw	127
   470  08C7  3441               	retlw	65
   471  08C8  3441               	retlw	65
   472  08C9  3441               	retlw	65
   473  08CA  343E               	retlw	62
   474  08CB  347F               	retlw	127
   475  08CC  3449               	retlw	73
   476  08CD  3449               	retlw	73
   477  08CE  3449               	retlw	73
   478  08CF  3441               	retlw	65
   479  08D0  347F               	retlw	127
   480  08D1  3409               	retlw	9
   481  08D2  3409               	retlw	9
   482  08D3  3409               	retlw	9
   483  08D4  3401               	retlw	1
   484  08D5  343E               	retlw	62
   485  08D6  3441               	retlw	65
   486  08D7  3441               	retlw	65
   487  08D8  3451               	retlw	81
   488  08D9  3473               	retlw	115
   489  08DA  347F               	retlw	127
   490  08DB  3408               	retlw	8
   491  08DC  3408               	retlw	8
   492  08DD  3408               	retlw	8
   493  08DE  347F               	retlw	127
   494  08DF  3400               	retlw	0
   495  08E0  3441               	retlw	65
   496  08E1  347F               	retlw	127
   497  08E2  3441               	retlw	65
   498  08E3  3400               	retlw	0
   499  08E4  3420               	retlw	32
   500  08E5  3440               	retlw	64
   501  08E6  3441               	retlw	65
   502  08E7  343F               	retlw	63
   503  08E8  3401               	retlw	1
   504  08E9  347F               	retlw	127
   505  08EA  3408               	retlw	8
   506  08EB  3414               	retlw	20
   507  08EC  3422               	retlw	34
   508  08ED  3441               	retlw	65
   509  08EE  347F               	retlw	127
   510  08EF  3440               	retlw	64
   511  08F0  3440               	retlw	64
   512  08F1  3440               	retlw	64
   513  08F2  3440               	retlw	64
   514  08F3  347F               	retlw	127
   515  08F4  3402               	retlw	2
   516  08F5  341C               	retlw	28
   517  08F6  3402               	retlw	2
   518  08F7  347F               	retlw	127
   519  08F8  347F               	retlw	127
   520  08F9  3404               	retlw	4
   521  08FA  3408               	retlw	8
   522  08FB  3410               	retlw	16
   523  08FC  347F               	retlw	127
   524  08FD  343E               	retlw	62
   525  08FE  3441               	retlw	65
   526  08FF  3441               	retlw	65
   527  0900  3441               	retlw	65
   528  0901  343E               	retlw	62
   529  0902  347F               	retlw	127
   530  0903  3409               	retlw	9
   531  0904  3409               	retlw	9
   532  0905  3409               	retlw	9
   533  0906  3406               	retlw	6
   534  0907  343E               	retlw	62
   535  0908  3441               	retlw	65
   536  0909  3451               	retlw	81
   537  090A  3421               	retlw	33
   538  090B  345E               	retlw	94
   539  090C  347F               	retlw	127
   540  090D  3409               	retlw	9
   541  090E  3419               	retlw	25
   542  090F  3429               	retlw	41
   543  0910  3446               	retlw	70
   544  0911                     __end_of_Font:
   545  0911                     _Font2:
   546  0911  3426               	retlw	38
   547  0912  3449               	retlw	73
   548  0913  3449               	retlw	73
   549  0914  3449               	retlw	73
   550  0915  3432               	retlw	50
   551  0916  3403               	retlw	3
   552  0917  3401               	retlw	1
   553  0918  347F               	retlw	127
   554  0919  3401               	retlw	1
   555  091A  3403               	retlw	3
   556  091B  343F               	retlw	63
   557  091C  3440               	retlw	64
   558  091D  3440               	retlw	64
   559  091E  3440               	retlw	64
   560  091F  343F               	retlw	63
   561  0920  341F               	retlw	31
   562  0921  3420               	retlw	32
   563  0922  3440               	retlw	64
   564  0923  3420               	retlw	32
   565  0924  341F               	retlw	31
   566  0925  343F               	retlw	63
   567  0926  3440               	retlw	64
   568  0927  3438               	retlw	56
   569  0928  3440               	retlw	64
   570  0929  343F               	retlw	63
   571  092A  3463               	retlw	99
   572  092B  3414               	retlw	20
   573  092C  3408               	retlw	8
   574  092D  3414               	retlw	20
   575  092E  3463               	retlw	99
   576  092F  3403               	retlw	3
   577  0930  3404               	retlw	4
   578  0931  3478               	retlw	120
   579  0932  3404               	retlw	4
   580  0933  3403               	retlw	3
   581  0934  3461               	retlw	97
   582  0935  3459               	retlw	89
   583  0936  3449               	retlw	73
   584  0937  344D               	retlw	77
   585  0938  3443               	retlw	67
   586  0939  3400               	retlw	0
   587  093A  347F               	retlw	127
   588  093B  3441               	retlw	65
   589  093C  3441               	retlw	65
   590  093D  3441               	retlw	65
   591  093E  3402               	retlw	2
   592  093F  3404               	retlw	4
   593  0940  3408               	retlw	8
   594  0941  3410               	retlw	16
   595  0942  3420               	retlw	32
   596  0943  3400               	retlw	0
   597  0944  3441               	retlw	65
   598  0945  3441               	retlw	65
   599  0946  3441               	retlw	65
   600  0947  347F               	retlw	127
   601  0948  3404               	retlw	4
   602  0949  3402               	retlw	2
   603  094A  3401               	retlw	1
   604  094B  3402               	retlw	2
   605  094C  3404               	retlw	4
   606  094D  3440               	retlw	64
   607  094E  3440               	retlw	64
   608  094F  3440               	retlw	64
   609  0950  3440               	retlw	64
   610  0951  3440               	retlw	64
   611  0952  3400               	retlw	0
   612  0953  3403               	retlw	3
   613  0954  3407               	retlw	7
   614  0955  3408               	retlw	8
   615  0956  3400               	retlw	0
   616  0957  3420               	retlw	32
   617  0958  3454               	retlw	84
   618  0959  3454               	retlw	84
   619  095A  3478               	retlw	120
   620  095B  3440               	retlw	64
   621  095C  347F               	retlw	127
   622  095D  3428               	retlw	40
   623  095E  3444               	retlw	68
   624  095F  3444               	retlw	68
   625  0960  3438               	retlw	56
   626  0961  3438               	retlw	56
   627  0962  3444               	retlw	68
   628  0963  3444               	retlw	68
   629  0964  3444               	retlw	68
   630  0965  3428               	retlw	40
   631  0966  3438               	retlw	56
   632  0967  3444               	retlw	68
   633  0968  3444               	retlw	68
   634  0969  3428               	retlw	40
   635  096A  347F               	retlw	127
   636  096B  3438               	retlw	56
   637  096C  3454               	retlw	84
   638  096D  3454               	retlw	84
   639  096E  3454               	retlw	84
   640  096F  3418               	retlw	24
   641  0970  3400               	retlw	0
   642  0971  3408               	retlw	8
   643  0972  347E               	retlw	126
   644  0973  3409               	retlw	9
   645  0974  3402               	retlw	2
   646  0975  3418               	retlw	24
   647  0976  34A4               	retlw	164
   648  0977  34A4               	retlw	164
   649  0978  349C               	retlw	156
   650  0979  3478               	retlw	120
   651  097A  347F               	retlw	127
   652  097B  3408               	retlw	8
   653  097C  3404               	retlw	4
   654  097D  3404               	retlw	4
   655  097E  3478               	retlw	120
   656  097F  3400               	retlw	0
   657  0980  3444               	retlw	68
   658  0981  347D               	retlw	125
   659  0982  3440               	retlw	64
   660  0983  3400               	retlw	0
   661  0984  3420               	retlw	32
   662  0985  3440               	retlw	64
   663  0986  3440               	retlw	64
   664  0987  343D               	retlw	61
   665  0988  3400               	retlw	0
   666  0989  347F               	retlw	127
   667  098A  3410               	retlw	16
   668  098B  3428               	retlw	40
   669  098C  3444               	retlw	68
   670  098D  3400               	retlw	0
   671  098E  3400               	retlw	0
   672  098F  3441               	retlw	65
   673  0990  347F               	retlw	127
   674  0991  3440               	retlw	64
   675  0992  3400               	retlw	0
   676  0993  347C               	retlw	124
   677  0994  3404               	retlw	4
   678  0995  3478               	retlw	120
   679  0996  3404               	retlw	4
   680  0997  3478               	retlw	120
   681  0998  347C               	retlw	124
   682  0999  3408               	retlw	8
   683  099A  3404               	retlw	4
   684  099B  3404               	retlw	4
   685  099C  3478               	retlw	120
   686  099D  3438               	retlw	56
   687  099E  3444               	retlw	68
   688  099F  3444               	retlw	68
   689  09A0  3444               	retlw	68
   690  09A1  3438               	retlw	56
   691  09A2  34FC               	retlw	252
   692  09A3  3418               	retlw	24
   693  09A4  3424               	retlw	36
   694  09A5  3424               	retlw	36
   695  09A6  3418               	retlw	24
   696  09A7  3418               	retlw	24
   697  09A8  3424               	retlw	36
   698  09A9  3424               	retlw	36
   699  09AA  3418               	retlw	24
   700  09AB  34FC               	retlw	252
   701  09AC  347C               	retlw	124
   702  09AD  3408               	retlw	8
   703  09AE  3404               	retlw	4
   704  09AF  3404               	retlw	4
   705  09B0  3408               	retlw	8
   706  09B1  3448               	retlw	72
   707  09B2  3454               	retlw	84
   708  09B3  3454               	retlw	84
   709  09B4  3454               	retlw	84
   710  09B5  3424               	retlw	36
   711  09B6  3404               	retlw	4
   712  09B7  3404               	retlw	4
   713  09B8  343F               	retlw	63
   714  09B9  3444               	retlw	68
   715  09BA  3424               	retlw	36
   716  09BB  343C               	retlw	60
   717  09BC  3440               	retlw	64
   718  09BD  3440               	retlw	64
   719  09BE  3420               	retlw	32
   720  09BF  347C               	retlw	124
   721  09C0  341C               	retlw	28
   722  09C1  3420               	retlw	32
   723  09C2  3440               	retlw	64
   724  09C3  3420               	retlw	32
   725  09C4  341C               	retlw	28
   726  09C5  343C               	retlw	60
   727  09C6  3440               	retlw	64
   728  09C7  3430               	retlw	48
   729  09C8  3440               	retlw	64
   730  09C9  343C               	retlw	60
   731  09CA  3444               	retlw	68
   732  09CB  3428               	retlw	40
   733  09CC  3410               	retlw	16
   734  09CD  3428               	retlw	40
   735  09CE  3444               	retlw	68
   736  09CF  344C               	retlw	76
   737  09D0  3490               	retlw	144
   738  09D1  3490               	retlw	144
   739  09D2  3490               	retlw	144
   740  09D3  347C               	retlw	124
   741  09D4  3444               	retlw	68
   742  09D5  3464               	retlw	100
   743  09D6  3454               	retlw	84
   744  09D7  344C               	retlw	76
   745  09D8  3444               	retlw	68
   746  09D9  3400               	retlw	0
   747  09DA  3408               	retlw	8
   748  09DB  3436               	retlw	54
   749  09DC  3441               	retlw	65
   750  09DD  3400               	retlw	0
   751  09DE  3400               	retlw	0
   752  09DF  3400               	retlw	0
   753  09E0  3477               	retlw	119
   754  09E1  3400               	retlw	0
   755  09E2  3400               	retlw	0
   756  09E3  3400               	retlw	0
   757  09E4  3441               	retlw	65
   758  09E5  3436               	retlw	54
   759  09E6  3408               	retlw	8
   760  09E7  3400               	retlw	0
   761  09E8  3402               	retlw	2
   762  09E9  3401               	retlw	1
   763  09EA  3402               	retlw	2
   764  09EB  3404               	retlw	4
   765  09EC  3402               	retlw	2
   766  09ED                     __end_of_Font2:
   767  0008                     _PORTD	set	8
   768  0013                     _SSPBUF	set	19
   769  0014                     _SSPCON	set	20
   770  0088                     _TRISD	set	136
   771  0094                     _SSPSTAT	set	148
   772  0093                     _SSPADD	set	147
   773  0091                     _SSPCON2	set	145
   774  048C                     _ACKEN	set	1164
   775  048D                     _ACKDT	set	1165
   776  048B                     _RCEN	set	1163
   777  048A                     _PEN	set	1162
   778  0488                     _SEN	set	1160
   779  043C                     _TRISC4	set	1084
   780  043B                     _TRISC3	set	1083
   781  09ED                     STR_1:
   782  09ED  3445               	retlw	69	;'E'
   783  09EE  346D               	retlw	109	;'m'
   784  09EF  3462               	retlw	98	;'b'
   785  09F0  3465               	retlw	101	;'e'
   786  09F1  3464               	retlw	100	;'d'
   787  09F2  3464               	retlw	100	;'d'
   788  09F3  3465               	retlw	101	;'e'
   789  09F4  3464               	retlw	100	;'d'
   790  09F5  3474               	retlw	116	;'t'
   791  09F6  3468               	retlw	104	;'h'
   792  09F7  3465               	retlw	101	;'e'
   793  09F8  3472               	retlw	114	;'r'
   794  09F9  3465               	retlw	101	;'e'
   795  09FA  342E               	retlw	46	;'.'
   796  09FB  3463               	retlw	99	;'c'
   797  09FC  346F               	retlw	111	;'o'
   798  09FD  346D               	retlw	109	;'m'
   799  09FE  3400               	retlw	0
   800  09FF                     STR_2:
   801  09FF  3448               	retlw	72	;'H'
   802  0A00  3469               	retlw	105	;'i'
   803  0A01  3421               	retlw	33	;'!'
   804  0A02  3400               	retlw	0
   805                           
   806                           	psect	cinit
   807  07E4                     start_initialization:	
   808                           ; #config settings
   809                           
   810  07E4                     __initialization:
   811                           
   812                           ; Initialize objects allocated to BANK0
   813  07E4  120A  118A  21B4  120A  118A  	fcall	__pidataBANK0	;fetch initializer
   814  07E9  00C5               	movwf	__pdataBANK0& (0+127)
   815  07EA  120A  118A  21B5  120A  118A  	fcall	__pidataBANK0+1	;fetch initializer
   816  07EF  00C6               	movwf	(__pdataBANK0+1)& (0+127)
   817  07F0  120A  118A  21B6  120A  118A  	fcall	__pidataBANK0+2	;fetch initializer
   818  07F5  00C7               	movwf	(__pdataBANK0+2)& (0+127)
   819                           
   820                           ; Clear objects allocated to BANK0
   821  07F6  01BF               	clrf	__pbssBANK0& (0+127)
   822  07F7  01C0               	clrf	(__pbssBANK0+1)& (0+127)
   823  07F8  01C1               	clrf	(__pbssBANK0+2)& (0+127)
   824  07F9  01C2               	clrf	(__pbssBANK0+3)& (0+127)
   825  07FA  01C3               	clrf	(__pbssBANK0+4)& (0+127)
   826  07FB  01C4               	clrf	(__pbssBANK0+5)& (0+127)
   827  07FC                     end_of_initialization:	
   828                           ;End of C runtime variable initialization code
   829                           
   830  07FC                     __end_of__initialization:
   831  07FC  0183               	clrf	3
   832  07FD  120A  118A  2C7D   	ljmp	_main	;jump to C main() function
   833                           
   834                           	psect	bssBANK0
   835  003F                     __pbssBANK0:
   836  003F                     SSD1306_PutStretchC@F935:
   837  003F                     	ds	4
   838  0043                     __vccstate:
   839  0043                     	ds	1
   840  0044                     __i2caddr:
   841  0044                     	ds	1
   842                           
   843                           	psect	dataBANK0
   844  0045                     __pdataBANK0:
   845  0045                     _wrap:
   846  0045                     	ds	1
   847  0046                     _y_pos:
   848  0046                     	ds	1
   849  0047                     _x_pos:
   850  0047                     	ds	1
   851                           
   852                           	psect	cstackCOMMON
   853  0070                     __pcstackCOMMON:
   854  0070                     ?_I2C_Hold:
   855  0070                     ??_I2C_Hold:	
   856                           ; 1 bytes @ 0x0
   857                           
   858  0070                     ?_I2C_Begin:	
   859                           ; 1 bytes @ 0x0
   860                           
   861  0070                     ??_I2C_Begin:	
   862                           ; 1 bytes @ 0x0
   863                           
   864  0070                     ?_I2C_End:	
   865                           ; 1 bytes @ 0x0
   866                           
   867  0070                     ??_I2C_End:	
   868                           ; 1 bytes @ 0x0
   869                           
   870  0070                     ?_I2C_Write:	
   871                           ; 1 bytes @ 0x0
   872                           
   873  0070                     ?_ssd1306_command:	
   874                           ; 1 bytes @ 0x0
   875                           
   876  0070                     ?_SSD1306_GotoXY:	
   877                           ; 1 bytes @ 0x0
   878                           
   879  0070                     ?_SSD1306_ClearDisplay:	
   880                           ; 1 bytes @ 0x0
   881                           
   882  0070                     ?_main:	
   883                           ; 1 bytes @ 0x0
   884                           
   885  0070                     ?___bmul:	
   886                           ; 1 bytes @ 0x0
   887                           
   888  0070                     ?___lbmod:	
   889                           ; 1 bytes @ 0x0
   890                           
   891  0070                     ?___wmul:	
   892                           ; 1 bytes @ 0x0
   893                           
   894  0070                     ?___lmul:	
   895                           ; 2 bytes @ 0x0
   896                           
   897  0070                     SSD1306_GotoXY@y:	
   898                           ; 4 bytes @ 0x0
   899                           
   900  0070                     ___bmul@multiplicand:	
   901                           ; 1 bytes @ 0x0
   902                           
   903  0070                     ___lbmod@divisor:	
   904                           ; 1 bytes @ 0x0
   905                           
   906  0070                     I2C_Write@data:	
   907                           ; 1 bytes @ 0x0
   908                           
   909  0070                     ___wmul@multiplier:	
   910                           ; 2 bytes @ 0x0
   911                           
   912  0070                     ___lmul@multiplier:	
   913                           ; 2 bytes @ 0x0
   914                           
   915                           
   916                           ; 4 bytes @ 0x0
   917  0070                     	ds	1
   918  0071                     ??_SSD1306_GotoXY:
   919  0071                     ??___bmul:	
   920                           ; 1 bytes @ 0x1
   921                           
   922  0071                     ??___lbmod:	
   923                           ; 1 bytes @ 0x1
   924                           
   925                           
   926                           ; 1 bytes @ 0x1
   927  0071                     	ds	1
   928  0072                     ??_I2C_Write:
   929  0072                     ??_ssd1306_command:	
   930                           ; 1 bytes @ 0x2
   931                           
   932  0072                     SSD1306_GotoXY@x:	
   933                           ; 1 bytes @ 0x2
   934                           
   935  0072                     ___bmul@product:	
   936                           ; 1 bytes @ 0x2
   937                           
   938  0072                     ___wmul@multiplicand:	
   939                           ; 1 bytes @ 0x2
   940                           
   941                           
   942                           ; 2 bytes @ 0x2
   943  0072                     	ds	1
   944  0073                     ___bmul@multiplier:
   945                           
   946                           ; 1 bytes @ 0x3
   947  0073                     	ds	1
   948  0074                     ??___wmul:
   949  0074                     ssd1306_command@c:	
   950                           ; 1 bytes @ 0x4
   951                           
   952  0074                     ___lbmod@dividend:	
   953                           ; 1 bytes @ 0x4
   954                           
   955  0074                     ___wmul@product:	
   956                           ; 1 bytes @ 0x4
   957                           
   958  0074                     ___lmul@multiplicand:	
   959                           ; 2 bytes @ 0x4
   960                           
   961                           
   962                           ; 4 bytes @ 0x4
   963  0074                     	ds	1
   964  0075                     ?_SSD1306_Init:
   965  0075                     ??_SSD1306_ClearDisplay:	
   966                           ; 1 bytes @ 0x5
   967                           
   968  0075                     SSD1306_Init@i2caddr:	
   969                           ; 1 bytes @ 0x5
   970                           
   971  0075                     ___lbmod@counter:	
   972                           ; 1 bytes @ 0x5
   973                           
   974                           
   975                           ; 1 bytes @ 0x5
   976  0075                     	ds	1
   977  0076                     ??_SSD1306_Init:
   978  0076                     ?___awdiv:	
   979                           ; 1 bytes @ 0x6
   980                           
   981  0076                     ___lbmod@rem:	
   982                           ; 2 bytes @ 0x6
   983                           
   984  0076                     ___awdiv@divisor:	
   985                           ; 1 bytes @ 0x6
   986                           
   987                           
   988                           ; 2 bytes @ 0x6
   989  0076                     	ds	1
   990  0077                     SSD1306_Init@vccstate:
   991  0077                     SSD1306_ClearDisplay@i:	
   992                           ; 1 bytes @ 0x7
   993                           
   994                           
   995                           ; 2 bytes @ 0x7
   996  0077                     	ds	1
   997  0078                     ??___lmul:
   998  0078                     ___awdiv@dividend:	
   999                           ; 1 bytes @ 0x8
  1000                           
  1001                           
  1002                           ; 2 bytes @ 0x8
  1003  0078                     	ds	1
  1004  0079                     ___lmul@product:
  1005                           
  1006                           ; 4 bytes @ 0x9
  1007  0079                     	ds	1
  1008  007A                     ??___awdiv:
  1009                           
  1010                           ; 1 bytes @ 0xA
  1011  007A                     	ds	1
  1012  007B                     ??_oled_puts:
  1013                           
  1014                           ; 1 bytes @ 0xB
  1015  007B                     	ds	2
  1016  007D                     ??___lldiv:
  1017                           
  1018                           ; 1 bytes @ 0xD
  1019  007D                     	ds	1
  1020                           
  1021                           	psect	cstackBANK0
  1022  0020                     __pcstackBANK0:
  1023  0020                     ?___lldiv:
  1024  0020                     ___awdiv@counter:	
  1025                           ; 4 bytes @ 0x0
  1026                           
  1027  0020                     ___lldiv@divisor:	
  1028                           ; 1 bytes @ 0x0
  1029                           
  1030                           
  1031                           ; 4 bytes @ 0x0
  1032  0020                     	ds	1
  1033  0021                     ___awdiv@sign:
  1034                           
  1035                           ; 1 bytes @ 0x1
  1036  0021                     	ds	1
  1037  0022                     ___awdiv@quotient:
  1038                           
  1039                           ; 2 bytes @ 0x2
  1040  0022                     	ds	2
  1041  0024                     ?_SSD1306_PutStretchC:
  1042  0024                     SSD1306_PutStretchC@size_mult:	
  1043                           ; 1 bytes @ 0x4
  1044                           
  1045  0024                     ___lldiv@dividend:	
  1046                           ; 1 bytes @ 0x4
  1047                           
  1048                           
  1049                           ; 4 bytes @ 0x4
  1050  0024                     	ds	1
  1051  0025                     ??_SSD1306_PutStretchC:
  1052                           
  1053                           ; 1 bytes @ 0x5
  1054  0025                     	ds	3
  1055  0028                     ___lldiv@quotient:
  1056                           
  1057                           ; 4 bytes @ 0x8
  1058  0028                     	ds	2
  1059  002A                     SSD1306_PutStretchC@b:
  1060                           
  1061                           ; 4 bytes @ 0xA
  1062  002A                     	ds	2
  1063  002C                     ___lldiv@counter:
  1064                           
  1065                           ; 1 bytes @ 0xC
  1066  002C                     	ds	1
  1067  002D                     ?_I2C_Initialize:
  1068  002D                     I2C_Initialize@feq_K:	
  1069                           ; 1 bytes @ 0xD
  1070                           
  1071                           
  1072                           ; 4 bytes @ 0xD
  1073  002D                     	ds	1
  1074  002E                     SSD1306_PutStretchC@pos:
  1075                           
  1076                           ; 1 bytes @ 0xE
  1077  002E                     	ds	1
  1078  002F                     SSD1306_PutStretchC@bn:
  1079                           
  1080                           ; 1 bytes @ 0xF
  1081  002F                     	ds	1
  1082  0030                     SSD1306_PutStretchC@i:
  1083                           
  1084                           ; 1 bytes @ 0x10
  1085  0030                     	ds	1
  1086  0031                     ??_I2C_Initialize:
  1087  0031                     SSD1306_PutStretchC@i_115:	
  1088                           ; 1 bytes @ 0x11
  1089                           
  1090                           
  1091                           ; 1 bytes @ 0x11
  1092  0031                     	ds	1
  1093  0032                     SSD1306_PutStretchC@font_c:
  1094                           
  1095                           ; 1 bytes @ 0x12
  1096  0032                     	ds	1
  1097  0033                     SSD1306_PutStretchC@offs:
  1098                           
  1099                           ; 1 bytes @ 0x13
  1100  0033                     	ds	1
  1101  0034                     SSD1306_PutStretchC@bn_116:
  1102                           
  1103                           ; 1 bytes @ 0x14
  1104  0034                     	ds	1
  1105  0035                     SSD1306_PutStretchC@p:
  1106                           
  1107                           ; 1 bytes @ 0x15
  1108  0035                     	ds	1
  1109  0036                     SSD1306_PutStretchC@i_107:
  1110                           
  1111                           ; 1 bytes @ 0x16
  1112  0036                     	ds	1
  1113  0037                     SSD1306_PutStretchC@c:
  1114                           
  1115                           ; 1 bytes @ 0x17
  1116  0037                     	ds	1
  1117  0038                     SSD1306_PutStretchC@i_111:
  1118                           
  1119                           ; 1 bytes @ 0x18
  1120  0038                     	ds	1
  1121  0039                     ?_oled_puts:
  1122  0039                     oled_puts@c:	
  1123                           ; 1 bytes @ 0x19
  1124                           
  1125                           
  1126                           ; 2 bytes @ 0x19
  1127  0039                     	ds	2
  1128  003B                     oled_puts@size:
  1129                           
  1130                           ; 1 bytes @ 0x1B
  1131  003B                     	ds	1
  1132  003C                     ??_main:
  1133                           
  1134                           ; 1 bytes @ 0x1C
  1135  003C                     	ds	3
  1136                           
  1137                           	psect	maintext
  1138  047D                     __pmaintext:	
  1139 ;;
  1140 ;;Main: autosize = 0, tempsize = 3, incstack = 0, save=0
  1141 ;;
  1142 ;; *************** function _main *****************
  1143 ;; Defined at:
  1144 ;;		line 14 in file "main.c"
  1145 ;; Parameters:    Size  Location     Type
  1146 ;;		None
  1147 ;; Auto vars:     Size  Location     Type
  1148 ;;		None
  1149 ;; Return value:  Size  Location     Type
  1150 ;;                  1    wreg      void 
  1151 ;; Registers used:
  1152 ;;		wreg, fsr0l, fsr0h, status,2, status,0, btemp+1, pclath, cstack
  1153 ;; Tracked objects:
  1154 ;;		On entry : B00/0
  1155 ;;		On exit  : 0/0
  1156 ;;		Unchanged: 0/0
  1157 ;; Data sizes:     COMMON   BANK0   BANK1   BANK3   BANK2
  1158 ;;      Params:         0       0       0       0       0
  1159 ;;      Locals:         0       0       0       0       0
  1160 ;;      Temps:          0       3       0       0       0
  1161 ;;      Totals:         0       3       0       0       0
  1162 ;;Total ram usage:        3 bytes
  1163 ;; Hardware stack levels required when called: 5
  1164 ;; This function calls:
  1165 ;;		_I2C_Initialize
  1166 ;;		_SSD1306_ClearDisplay
  1167 ;;		_SSD1306_GotoXY
  1168 ;;		_SSD1306_Init
  1169 ;;		_oled_puts
  1170 ;; This function is called by:
  1171 ;;		Startup code after reset
  1172 ;; This function uses a non-reentrant model
  1173 ;;
  1174                           
  1175  047D                     _main:	
  1176                           ;psect for function _main
  1177                           
  1178  047D                     l1820:	
  1179                           ;incstack = 0
  1180                           ; Regs used in _main: [wreg-fsr0h+status,2+status,0+btemp+1+pclath+cstack]
  1181                           
  1182                           
  1183                           ;main.c: 15:     TRISD = 0x00;
  1184  047D  1683               	bsf	3,5	;RP0=1, select bank1
  1185  047E  1303               	bcf	3,6	;RP1=0, select bank1
  1186  047F  0188               	clrf	8	;volatile
  1187  0480                     l1822:
  1188                           
  1189                           ;main.c: 17:     _delay((unsigned long)((1000)*(8000000/4000.0)));
  1190  0480  300B               	movlw	11
  1191  0481  1283               	bcf	3,5	;RP0=0, select bank0
  1192  0482  1303               	bcf	3,6	;RP1=0, select bank0
  1193  0483  00BE               	movwf	??_main+2
  1194  0484  3026               	movlw	38
  1195  0485  00BD               	movwf	??_main+1
  1196  0486  305D               	movlw	93
  1197  0487  00BC               	movwf	??_main
  1198  0488                     u1627:
  1199  0488  0BBC               	decfsz	??_main,f
  1200  0489  2C88               	goto	u1627
  1201  048A  0BBD               	decfsz	??_main+1,f
  1202  048B  2C88               	goto	u1627
  1203  048C  0BBE               	decfsz	??_main+2,f
  1204  048D  2C88               	goto	u1627
  1205  048E                     l1824:
  1206                           
  1207                           ;main.c: 20:     I2C_Initialize(2000);
  1208  048E  3000               	movlw	0
  1209  048F  1283               	bcf	3,5	;RP0=0, select bank0
  1210  0490  1303               	bcf	3,6	;RP1=0, select bank0
  1211  0491  00B0               	movwf	I2C_Initialize@feq_K+3
  1212  0492  3000               	movlw	0
  1213  0493  00AF               	movwf	I2C_Initialize@feq_K+2
  1214  0494  3007               	movlw	7
  1215  0495  00AE               	movwf	I2C_Initialize@feq_K+1
  1216  0496  30D0               	movlw	208
  1217  0497  00AD               	movwf	I2C_Initialize@feq_K
  1218  0498  120A  118A  22FA  120A  118A  	fcall	_I2C_Initialize
  1219  049D                     l1826:
  1220                           
  1221                           ;main.c: 22:     SSD1306_Init(0x02, 0x78);
  1222  049D  3078               	movlw	120
  1223  049E  1283               	bcf	3,5	;RP0=0, select bank0
  1224  049F  1303               	bcf	3,6	;RP1=0, select bank0
  1225  04A0  00BC               	movwf	??_main
  1226  04A1  083C               	movf	??_main,w
  1227  04A2  00F5               	movwf	SSD1306_Init@i2caddr
  1228  04A3  3002               	movlw	2
  1229  04A4  120A  118A  24F6  120A  118A  	fcall	_SSD1306_Init
  1230  04A9                     l1828:
  1231                           
  1232                           ;main.c: 24:     SSD1306_ClearDisplay();
  1233  04A9  120A  118A  234D  120A  118A  	fcall	_SSD1306_ClearDisplay
  1234  04AE                     l1830:
  1235                           
  1236                           ;main.c: 28:         PORTD ^= 0xFF;
  1237  04AE  30FF               	movlw	255
  1238  04AF  1283               	bcf	3,5	;RP0=0, select bank0
  1239  04B0  1303               	bcf	3,6	;RP1=0, select bank0
  1240  04B1  00BC               	movwf	??_main
  1241  04B2  083C               	movf	??_main,w
  1242  04B3  0688               	xorwf	8,f	;volatile
  1243  04B4                     l1832:
  1244                           
  1245                           ;main.c: 30:         SSD1306_GotoXY(1,1);
  1246  04B4  01F0               	clrf	SSD1306_GotoXY@y
  1247  04B5  0AF0               	incf	SSD1306_GotoXY@y,f
  1248  04B6  3001               	movlw	1
  1249  04B7  120A  118A  21F5  120A  118A  	fcall	_SSD1306_GotoXY
  1250  04BC                     l1834:
  1251                           
  1252                           ;main.c: 31:         oled_puts("Embeddedthere.com", 1);
  1253  04BC  30ED               	movlw	low (STR_1| (0+32768))
  1254  04BD  1283               	bcf	3,5	;RP0=0, select bank0
  1255  04BE  1303               	bcf	3,6	;RP1=0, select bank0
  1256  04BF  00B9               	movwf	oled_puts@c
  1257  04C0  3089               	movlw	high (STR_1| (0+32768))
  1258  04C1  00BA               	movwf	oled_puts@c+1
  1259  04C2  01BB               	clrf	oled_puts@size
  1260  04C3  0ABB               	incf	oled_puts@size,f
  1261  04C4  120A  118A  225A  120A  118A  	fcall	_oled_puts
  1262  04C9                     l1836:
  1263                           
  1264                           ;main.c: 32:         SSD1306_GotoXY(1,2);
  1265  04C9  3002               	movlw	2
  1266  04CA  1283               	bcf	3,5	;RP0=0, select bank0
  1267  04CB  1303               	bcf	3,6	;RP1=0, select bank0
  1268  04CC  00BC               	movwf	??_main
  1269  04CD  083C               	movf	??_main,w
  1270  04CE  00F0               	movwf	SSD1306_GotoXY@y
  1271  04CF  3001               	movlw	1
  1272  04D0  120A  118A  21F5  120A  118A  	fcall	_SSD1306_GotoXY
  1273  04D5                     l1838:
  1274                           
  1275                           ;main.c: 33:         oled_puts("Hi!", 2);
  1276  04D5  30FF               	movlw	low (STR_2| (0+32768))
  1277  04D6  1283               	bcf	3,5	;RP0=0, select bank0
  1278  04D7  1303               	bcf	3,6	;RP1=0, select bank0
  1279  04D8  00B9               	movwf	oled_puts@c
  1280  04D9  3089               	movlw	high (STR_2| (0+32768))
  1281  04DA  00BA               	movwf	oled_puts@c+1
  1282  04DB  3002               	movlw	2
  1283  04DC  00BC               	movwf	??_main
  1284  04DD  083C               	movf	??_main,w
  1285  04DE  00BB               	movwf	oled_puts@size
  1286  04DF  120A  118A  225A  120A  118A  	fcall	_oled_puts
  1287  04E4                     l1840:
  1288                           
  1289                           ;main.c: 34:         _delay((unsigned long)((5000)*(8000000/4000.0)));
  1290  04E4  3033               	movlw	51
  1291  04E5  1283               	bcf	3,5	;RP0=0, select bank0
  1292  04E6  1303               	bcf	3,6	;RP1=0, select bank0
  1293  04E7  00BE               	movwf	??_main+2
  1294  04E8  30BB               	movlw	187
  1295  04E9  00BD               	movwf	??_main+1
  1296  04EA  30DF               	movlw	223
  1297  04EB  00BC               	movwf	??_main
  1298  04EC                     u1637:
  1299  04EC  0BBC               	decfsz	??_main,f
  1300  04ED  2CEC               	goto	u1637
  1301  04EE  0BBD               	decfsz	??_main+1,f
  1302  04EF  2CEC               	goto	u1637
  1303  04F0  0BBE               	decfsz	??_main+2,f
  1304  04F1  2CEC               	goto	u1637
  1305  04F2  2CA9               	goto	l1828
  1306  04F3  120A  118A  2800   	ljmp	start
  1307  04F6                     __end_of_main:
  1308                           
  1309                           	psect	text1
  1310  025A                     __ptext1:	
  1311 ;; *************** function _oled_puts *****************
  1312 ;; Defined at:
  1313 ;;		line 7 in file "main.c"
  1314 ;; Parameters:    Size  Location     Type
  1315 ;;  c               2   25[BANK0 ] PTR const unsigned char 
  1316 ;;		 -> STR_2(4), STR_1(18), 
  1317 ;;  size            1   27[BANK0 ] unsigned char 
  1318 ;; Auto vars:     Size  Location     Type
  1319 ;;		None
  1320 ;; Return value:  Size  Location     Type
  1321 ;;                  1    wreg      void 
  1322 ;; Registers used:
  1323 ;;		wreg, fsr0l, fsr0h, status,2, status,0, btemp+1, pclath, cstack
  1324 ;; Tracked objects:
  1325 ;;		On entry : 0/0
  1326 ;;		On exit  : 0/0
  1327 ;;		Unchanged: 0/0
  1328 ;; Data sizes:     COMMON   BANK0   BANK1   BANK3   BANK2
  1329 ;;      Params:         0       3       0       0       0
  1330 ;;      Locals:         0       0       0       0       0
  1331 ;;      Temps:          1       0       0       0       0
  1332 ;;      Totals:         1       3       0       0       0
  1333 ;;Total ram usage:        4 bytes
  1334 ;; Hardware stack levels used: 1
  1335 ;; Hardware stack levels required when called: 4
  1336 ;; This function calls:
  1337 ;;		_SSD1306_PutStretchC
  1338 ;; This function is called by:
  1339 ;;		_main
  1340 ;; This function uses a non-reentrant model
  1341 ;;
  1342                           
  1343  025A                     _oled_puts:	
  1344                           ;psect for function _oled_puts
  1345                           
  1346  025A                     l1668:	
  1347                           ;incstack = 0
  1348                           ; Regs used in _oled_puts: [wreg-fsr0h+status,2+status,0+btemp+1+pclath+cstack]
  1349                           
  1350                           
  1351                           ;main.c: 8:     while(*c != '\0') {
  1352  025A  2A75               	goto	l1674
  1353  025B                     l1670:
  1354                           
  1355                           ;main.c: 9:         SSD1306_PutStretchC(*c, size);
  1356  025B  083B               	movf	oled_puts@size,w
  1357  025C  00FB               	movwf	??_oled_puts
  1358  025D  087B               	movf	??_oled_puts,w
  1359  025E  00A4               	movwf	SSD1306_PutStretchC@size_mult
  1360  025F  083A               	movf	oled_puts@c+1,w
  1361  0260  00FF               	movwf	btemp+1
  1362  0261  0839               	movf	oled_puts@c,w
  1363  0262  0084               	movwf	4
  1364  0263  120A  158A  2000  120A  118A  	fcall	stringtab
  1365  0268  120A  118A  25C2  120A  118A  	fcall	_SSD1306_PutStretchC
  1366  026D                     l1672:
  1367                           
  1368                           ;main.c: 10:         c++;
  1369  026D  3001               	movlw	1
  1370  026E  1283               	bcf	3,5	;RP0=0, select bank0
  1371  026F  1303               	bcf	3,6	;RP1=0, select bank0
  1372  0270  07B9               	addwf	oled_puts@c,f
  1373  0271  1803               	skipnc
  1374  0272  0ABA               	incf	oled_puts@c+1,f
  1375  0273  3000               	movlw	0
  1376  0274  07BA               	addwf	oled_puts@c+1,f
  1377  0275                     l1674:
  1378                           
  1379                           ;main.c: 8:     while(*c != '\0') {
  1380  0275  1283               	bcf	3,5	;RP0=0, select bank0
  1381  0276  1303               	bcf	3,6	;RP1=0, select bank0
  1382  0277  083A               	movf	oled_puts@c+1,w
  1383  0278  00FF               	movwf	btemp+1
  1384  0279  0839               	movf	oled_puts@c,w
  1385  027A  0084               	movwf	4
  1386  027B  120A  158A  2000  120A  118A  	fcall	stringtab
  1387  0280  3A00               	xorlw	0
  1388  0281  1D03               	skipz
  1389  0282  2A84               	goto	u1371
  1390  0283  2A85               	goto	u1370
  1391  0284                     u1371:
  1392  0284  2A5B               	goto	l1670
  1393  0285                     u1370:
  1394  0285                     l192:
  1395  0285  0008               	return
  1396  0286                     __end_of_oled_puts:
  1397                           
  1398                           	psect	text2
  1399  05C2                     __ptext2:	
  1400 ;; *************** function _SSD1306_PutStretchC *****************
  1401 ;; Defined at:
  1402 ;;		line 397 in file "./unbuffered_ssd1306.h"
  1403 ;; Parameters:    Size  Location     Type
  1404 ;;  c               1    wreg     unsigned char 
  1405 ;;  size_mult       1    4[BANK0 ] unsigned char 
  1406 ;; Auto vars:     Size  Location     Type
  1407 ;;  c               1   23[BANK0 ] unsigned char 
  1408 ;;  bn              1   15[BANK0 ] unsigned char 
  1409 ;;  pos             1   14[BANK0 ] unsigned char 
  1410 ;;  p               1   21[BANK0 ] unsigned char 
  1411 ;;  bn              1   20[BANK0 ] unsigned char 
  1412 ;;  i               1   17[BANK0 ] unsigned char 
  1413 ;;  i               1   24[BANK0 ] unsigned char 
  1414 ;;  b               4   10[BANK0 ] unsigned char [4]
  1415 ;;  offs            1   19[BANK0 ] unsigned char 
  1416 ;;  i               1   22[BANK0 ] unsigned char 
  1417 ;;  i               1   16[BANK0 ] unsigned char 
  1418 ;;  font_c          1   18[BANK0 ] unsigned char 
  1419 ;; Return value:  Size  Location     Type
  1420 ;;                  1    wreg      void 
  1421 ;; Registers used:
  1422 ;;		wreg, fsr0l, fsr0h, status,2, status,0, btemp+1, pclath, cstack
  1423 ;; Tracked objects:
  1424 ;;		On entry : 0/0
  1425 ;;		On exit  : 0/0
  1426 ;;		Unchanged: 0/0
  1427 ;; Data sizes:     COMMON   BANK0   BANK1   BANK3   BANK2
  1428 ;;      Params:         0       1       0       0       0
  1429 ;;      Locals:         0      15       0       0       0
  1430 ;;      Temps:          0       5       0       0       0
  1431 ;;      Totals:         0      21       0       0       0
  1432 ;;Total ram usage:       21 bytes
  1433 ;; Hardware stack levels used: 1
  1434 ;; Hardware stack levels required when called: 3
  1435 ;; This function calls:
  1436 ;;		_I2C_Begin
  1437 ;;		_I2C_End
  1438 ;;		_I2C_Write
  1439 ;;		___awdiv
  1440 ;;		___bmul
  1441 ;;		___lbmod
  1442 ;;		___wmul
  1443 ;;		_ssd1306_command
  1444 ;; This function is called by:
  1445 ;;		_oled_puts
  1446 ;; This function uses a non-reentrant model
  1447 ;;
  1448                           
  1449  05C2                     _SSD1306_PutStretchC:	
  1450                           ;psect for function _SSD1306_PutStretchC
  1451                           
  1452                           
  1453                           ;incstack = 0
  1454                           ; Regs used in _SSD1306_PutStretchC: [wreg-fsr0h+status,2+status,0+btemp+1+pclath+cstack
      +                          ]
  1455                           ;SSD1306_PutStretchC@c stored from wreg
  1456  05C2  1283               	bcf	3,5	;RP0=0, select bank0
  1457  05C3  1303               	bcf	3,6	;RP1=0, select bank0
  1458  05C4  00B7               	movwf	SSD1306_PutStretchC@c
  1459  05C5                     l1436:
  1460                           
  1461                           ;./unbuffered_ssd1306.h: 398:   uint8_t font_c;;./unbuffered_ssd1306.h: 400:   ssd1306_c
      +                          ommand(0x20);
  1462  05C5  3020               	movlw	32
  1463  05C6  120A  118A  2286  120A  118A  	fcall	_ssd1306_command
  1464                           
  1465                           ;./unbuffered_ssd1306.h: 401:   ssd1306_command(0x01);
  1466  05CB  3001               	movlw	1
  1467  05CC  120A  118A  2286  120A  118A  	fcall	_ssd1306_command
  1468  05D1                     l1438:
  1469                           
  1470                           ;./unbuffered_ssd1306.h: 403:   if((c < ' ') || (c > '~'))
  1471  05D1  3020               	movlw	32
  1472  05D2  1283               	bcf	3,5	;RP0=0, select bank0
  1473  05D3  1303               	bcf	3,6	;RP1=0, select bank0
  1474  05D4  0237               	subwf	SSD1306_PutStretchC@c,w
  1475  05D5  1C03               	skipc
  1476  05D6  2DD8               	goto	u981
  1477  05D7  2DD9               	goto	u980
  1478  05D8                     u981:
  1479  05D8  2DDF               	goto	l1442
  1480  05D9                     u980:
  1481  05D9                     l1440:
  1482  05D9  307F               	movlw	127
  1483  05DA  0237               	subwf	SSD1306_PutStretchC@c,w
  1484  05DB  1C03               	skipc
  1485  05DC  2DDE               	goto	u991
  1486  05DD  2DDF               	goto	u990
  1487  05DE                     u991:
  1488  05DE  2DE3               	goto	l1444
  1489  05DF                     u990:
  1490  05DF                     l1442:
  1491                           
  1492                           ;./unbuffered_ssd1306.h: 404:     c = '?';
  1493  05DF  303F               	movlw	63
  1494  05E0  00A5               	movwf	??_SSD1306_PutStretchC
  1495  05E1  0825               	movf	??_SSD1306_PutStretchC,w
  1496  05E2  00B7               	movwf	SSD1306_PutStretchC@c
  1497  05E3                     l1444:
  1498                           
  1499                           ;./unbuffered_ssd1306.h: 407:   if(size_mult < 1 || size_mult > 4) {
  1500  05E3  0824               	movf	SSD1306_PutStretchC@size_mult,w
  1501  05E4  1903               	btfsc	3,2
  1502  05E5  2DE7               	goto	u1001
  1503  05E6  2DE8               	goto	u1000
  1504  05E7                     u1001:
  1505  05E7  2DEE               	goto	l140
  1506  05E8                     u1000:
  1507  05E8                     l1446:
  1508  05E8  3005               	movlw	5
  1509  05E9  0224               	subwf	SSD1306_PutStretchC@size_mult,w
  1510  05EA  1C03               	skipc
  1511  05EB  2DED               	goto	u1011
  1512  05EC  2DEE               	goto	u1010
  1513  05ED                     u1011:
  1514  05ED  2DF0               	goto	l1448
  1515  05EE                     u1010:
  1516  05EE                     l140:
  1517                           
  1518                           ;./unbuffered_ssd1306.h: 408:       size_mult = 1;
  1519  05EE  01A4               	clrf	SSD1306_PutStretchC@size_mult
  1520  05EF  0AA4               	incf	SSD1306_PutStretchC@size_mult,f
  1521  05F0                     l1448:
  1522                           
  1523                           ;./unbuffered_ssd1306.h: 411:   for(uint8_t i=0; i<(size_mult - 1); i++) {
  1524  05F0  01B0               	clrf	SSD1306_PutStretchC@i
  1525  05F1  2E0D               	goto	l1456
  1526  05F2                     l1450:
  1527                           
  1528                           ;./unbuffered_ssd1306.h: 412:       if(x_pos % size_mult != 1) {
  1529  05F2  1283               	bcf	3,5	;RP0=0, select bank0
  1530  05F3  1303               	bcf	3,6	;RP1=0, select bank0
  1531  05F4  0824               	movf	SSD1306_PutStretchC@size_mult,w
  1532  05F5  00A5               	movwf	??_SSD1306_PutStretchC
  1533  05F6  0825               	movf	??_SSD1306_PutStretchC,w
  1534  05F7  00F0               	movwf	___lbmod@divisor
  1535  05F8  0847               	movf	_x_pos,w
  1536  05F9  120A  118A  2233  120A  118A  	fcall	___lbmod
  1537  05FE  3A01               	xorlw	1
  1538  05FF  1903               	skipnz
  1539  0600  2E02               	goto	u1021
  1540  0601  2E03               	goto	u1020
  1541  0602                     u1021:
  1542  0602  2E1F               	goto	l1458
  1543  0603                     u1020:
  1544  0603                     l1452:
  1545                           
  1546                           ;./unbuffered_ssd1306.h: 413:         x_pos++;
  1547  0603  3001               	movlw	1
  1548  0604  1283               	bcf	3,5	;RP0=0, select bank0
  1549  0605  1303               	bcf	3,6	;RP1=0, select bank0
  1550  0606  00A5               	movwf	??_SSD1306_PutStretchC
  1551  0607  0825               	movf	??_SSD1306_PutStretchC,w
  1552  0608  07C7               	addwf	_x_pos,f
  1553  0609                     l1454:	
  1554                           ;./unbuffered_ssd1306.h: 414:       } else {
  1555                           
  1556                           
  1557                           ;./unbuffered_ssd1306.h: 417:   }
  1558  0609  3001               	movlw	1
  1559  060A  00A5               	movwf	??_SSD1306_PutStretchC
  1560  060B  0825               	movf	??_SSD1306_PutStretchC,w
  1561  060C  07B0               	addwf	SSD1306_PutStretchC@i,f
  1562  060D                     l1456:
  1563  060D  0824               	movf	SSD1306_PutStretchC@size_mult,w
  1564  060E  3EFF               	addlw	255
  1565  060F  00A5               	movwf	??_SSD1306_PutStretchC
  1566  0610  30FF               	movlw	255
  1567  0611  1803               	skipnc
  1568  0612  3000               	movlw	0
  1569  0613  00A6               	movwf	??_SSD1306_PutStretchC+1
  1570  0614  0826               	movf	??_SSD1306_PutStretchC+1,w
  1571  0615  3A80               	xorlw	128
  1572  0616  3C80               	sublw	128
  1573  0617  1D03               	skipz
  1574  0618  2E1B               	goto	u1035
  1575  0619  0825               	movf	??_SSD1306_PutStretchC,w
  1576  061A  0230               	subwf	SSD1306_PutStretchC@i,w
  1577  061B                     u1035:
  1578  061B  1C03               	skipc
  1579  061C  2E1E               	goto	u1031
  1580  061D  2E1F               	goto	u1030
  1581  061E                     u1031:
  1582  061E  2DF2               	goto	l1450
  1583  061F                     u1030:
  1584  061F                     l1458:
  1585                           
  1586                           ;./unbuffered_ssd1306.h: 419:   if(x_pos > 21) {
  1587  061F  3016               	movlw	22
  1588  0620  1283               	bcf	3,5	;RP0=0, select bank0
  1589  0621  1303               	bcf	3,6	;RP1=0, select bank0
  1590  0622  0247               	subwf	_x_pos,w
  1591  0623  1C03               	skipc
  1592  0624  2E26               	goto	u1041
  1593  0625  2E27               	goto	u1040
  1594  0626                     u1041:
  1595  0626  2E32               	goto	l1466
  1596  0627                     u1040:
  1597  0627                     l1460:
  1598                           
  1599                           ;./unbuffered_ssd1306.h: 420:       x_pos = 1;
  1600  0627  01C7               	clrf	_x_pos
  1601  0628  0AC7               	incf	_x_pos,f
  1602  0629                     l1462:
  1603                           
  1604                           ;./unbuffered_ssd1306.h: 421:       if(wrap) {
  1605  0629  0845               	movf	_wrap,w
  1606  062A  1903               	btfsc	3,2
  1607  062B  2E2D               	goto	u1051
  1608  062C  2E2E               	goto	u1050
  1609  062D                     u1051:
  1610  062D  2E32               	goto	l1466
  1611  062E                     u1050:
  1612  062E                     l1464:
  1613                           
  1614                           ;./unbuffered_ssd1306.h: 422:           y_pos+=size_mult;
  1615  062E  0824               	movf	SSD1306_PutStretchC@size_mult,w
  1616  062F  00A5               	movwf	??_SSD1306_PutStretchC
  1617  0630  0825               	movf	??_SSD1306_PutStretchC,w
  1618  0631  07C6               	addwf	_y_pos,f
  1619  0632                     l1466:
  1620                           
  1621                           ;./unbuffered_ssd1306.h: 425:   ssd1306_command(0x21);
  1622  0632  3021               	movlw	33
  1623  0633  120A  118A  2286  120A  118A  	fcall	_ssd1306_command
  1624  0638                     l1468:
  1625                           
  1626                           ;./unbuffered_ssd1306.h: 426:   ssd1306_command(6 * (x_pos - 1));
  1627  0638  3006               	movlw	6
  1628  0639  1283               	bcf	3,5	;RP0=0, select bank0
  1629  063A  1303               	bcf	3,6	;RP1=0, select bank0
  1630  063B  00A5               	movwf	??_SSD1306_PutStretchC
  1631  063C  0825               	movf	??_SSD1306_PutStretchC,w
  1632  063D  00F0               	movwf	___bmul@multiplicand
  1633  063E  0847               	movf	_x_pos,w
  1634  063F  3EFF               	addlw	255
  1635  0640  120A  118A  21E0  120A  118A  	fcall	___bmul
  1636  0645  120A  118A  2286  120A  118A  	fcall	_ssd1306_command
  1637  064A                     l1470:
  1638                           
  1639                           ;./unbuffered_ssd1306.h: 427:   ssd1306_command(6 * (x_pos - 1) + (size_mult*5 - 1));
  1640  064A  3005               	movlw	5
  1641  064B  1283               	bcf	3,5	;RP0=0, select bank0
  1642  064C  1303               	bcf	3,6	;RP1=0, select bank0
  1643  064D  00A5               	movwf	??_SSD1306_PutStretchC
  1644  064E  0825               	movf	??_SSD1306_PutStretchC,w
  1645  064F  00F0               	movwf	___bmul@multiplicand
  1646  0650  0824               	movf	SSD1306_PutStretchC@size_mult,w
  1647  0651  120A  118A  21E0  120A  118A  	fcall	___bmul
  1648  0656  1283               	bcf	3,5	;RP0=0, select bank0
  1649  0657  1303               	bcf	3,6	;RP1=0, select bank0
  1650  0658  00A6               	movwf	??_SSD1306_PutStretchC+1
  1651  0659  3006               	movlw	6
  1652  065A  00A7               	movwf	??_SSD1306_PutStretchC+2
  1653  065B  0827               	movf	??_SSD1306_PutStretchC+2,w
  1654  065C  00F0               	movwf	___bmul@multiplicand
  1655  065D  0847               	movf	_x_pos,w
  1656  065E  120A  118A  21E0  120A  118A  	fcall	___bmul
  1657  0663  1283               	bcf	3,5	;RP0=0, select bank0
  1658  0664  1303               	bcf	3,6	;RP1=0, select bank0
  1659  0665  0726               	addwf	??_SSD1306_PutStretchC+1,w
  1660  0666  3EF9               	addlw	249
  1661  0667  120A  118A  2286  120A  118A  	fcall	_ssd1306_command
  1662  066C                     l1472:
  1663                           
  1664                           ;./unbuffered_ssd1306.h: 429:   ssd1306_command(0x22);
  1665  066C  3022               	movlw	34
  1666  066D  120A  118A  2286  120A  118A  	fcall	_ssd1306_command
  1667  0672                     l1474:
  1668                           
  1669                           ;./unbuffered_ssd1306.h: 430:   ssd1306_command(y_pos - 1);
  1670  0672  1283               	bcf	3,5	;RP0=0, select bank0
  1671  0673  1303               	bcf	3,6	;RP1=0, select bank0
  1672  0674  0846               	movf	_y_pos,w
  1673  0675  3EFF               	addlw	255
  1674  0676  120A  118A  2286  120A  118A  	fcall	_ssd1306_command
  1675  067B                     l1476:
  1676                           
  1677                           ;./unbuffered_ssd1306.h: 431:   ssd1306_command((y_pos - 1)+(size_mult - 1));
  1678  067B  1283               	bcf	3,5	;RP0=0, select bank0
  1679  067C  1303               	bcf	3,6	;RP1=0, select bank0
  1680  067D  0846               	movf	_y_pos,w
  1681  067E  0724               	addwf	SSD1306_PutStretchC@size_mult,w
  1682  067F  3EFE               	addlw	254
  1683  0680  120A  118A  2286  120A  118A  	fcall	_ssd1306_command
  1684  0685                     l1478:
  1685                           
  1686                           ;./unbuffered_ssd1306.h: 433:   I2C_Begin();
  1687  0685  120A  118A  21B7  120A  118A  	fcall	_I2C_Begin
  1688  068A                     l1480:
  1689                           
  1690                           ;./unbuffered_ssd1306.h: 434:   I2C_Write(_i2caddr);
  1691  068A  1283               	bcf	3,5	;RP0=0, select bank0
  1692  068B  1303               	bcf	3,6	;RP1=0, select bank0
  1693  068C  0844               	movf	__i2caddr,w
  1694  068D  00A5               	movwf	??_SSD1306_PutStretchC
  1695  068E  01A6               	clrf	??_SSD1306_PutStretchC+1
  1696  068F  0825               	movf	??_SSD1306_PutStretchC,w
  1697  0690  00F0               	movwf	I2C_Write@data
  1698  0691  0826               	movf	??_SSD1306_PutStretchC+1,w
  1699  0692  00F1               	movwf	I2C_Write@data+1
  1700  0693  120A  118A  21C9  120A  118A  	fcall	_I2C_Write
  1701  0698                     l1482:
  1702                           
  1703                           ;./unbuffered_ssd1306.h: 435:   I2C_Write(0x40);
  1704  0698  3040               	movlw	64
  1705  0699  00F0               	movwf	I2C_Write@data
  1706  069A  3000               	movlw	0
  1707  069B  00F1               	movwf	I2C_Write@data+1
  1708  069C  120A  118A  21C9  120A  118A  	fcall	_I2C_Write
  1709  06A1                     l1484:
  1710                           
  1711                           ;./unbuffered_ssd1306.h: 437:   for(uint8_t i = 0; i < 5; i++ ) {
  1712  06A1  1283               	bcf	3,5	;RP0=0, select bank0
  1713  06A2  1303               	bcf	3,6	;RP1=0, select bank0
  1714  06A3  01B6               	clrf	SSD1306_PutStretchC@i_107
  1715  06A4                     l1490:
  1716                           
  1717                           ;./unbuffered_ssd1306.h: 439:     uint8_t offs;;./unbuffered_ssd1306.h: 440:     uint8_t
      +                           b[4] = {0};
  1718  06A4  3000               	movlw	0
  1719  06A5  00AD               	movwf	SSD1306_PutStretchC@b+3
  1720  06A6  3000               	movlw	0
  1721  06A7  00AC               	movwf	SSD1306_PutStretchC@b+2
  1722  06A8  3000               	movlw	0
  1723  06A9  00AB               	movwf	SSD1306_PutStretchC@b+1
  1724  06AA  3000               	movlw	0
  1725  06AB  00AA               	movwf	SSD1306_PutStretchC@b
  1726                           
  1727                           ;./unbuffered_ssd1306.h: 442:     if(c < 'S') {
  1728  06AC  3053               	movlw	83
  1729  06AD  0237               	subwf	SSD1306_PutStretchC@c,w
  1730  06AE  1803               	skipnc
  1731  06AF  2EB1               	goto	u1061
  1732  06B0  2EB2               	goto	u1060
  1733  06B1                     u1061:
  1734  06B1  2ED9               	goto	l1496
  1735  06B2                     u1060:
  1736  06B2                     l1492:
  1737                           
  1738                           ;./unbuffered_ssd1306.h: 443:         offs = (c - 32)*5;
  1739  06B2  3005               	movlw	5
  1740  06B3  00A5               	movwf	??_SSD1306_PutStretchC
  1741  06B4  0825               	movf	??_SSD1306_PutStretchC,w
  1742  06B5  00F0               	movwf	___bmul@multiplicand
  1743  06B6  0837               	movf	SSD1306_PutStretchC@c,w
  1744  06B7  3EE0               	addlw	224
  1745  06B8  120A  118A  21E0  120A  118A  	fcall	___bmul
  1746  06BD  1283               	bcf	3,5	;RP0=0, select bank0
  1747  06BE  1303               	bcf	3,6	;RP1=0, select bank0
  1748  06BF  00A6               	movwf	??_SSD1306_PutStretchC+1
  1749  06C0  0826               	movf	??_SSD1306_PutStretchC+1,w
  1750  06C1  00B3               	movwf	SSD1306_PutStretchC@offs
  1751  06C2                     l1494:
  1752                           
  1753                           ;./unbuffered_ssd1306.h: 444:         font_c = Font[offs + i];
  1754  06C2  0836               	movf	SSD1306_PutStretchC@i_107,w
  1755  06C3  3E12               	addlw	low (_Font| (0+32768))
  1756  06C4  00A5               	movwf	??_SSD1306_PutStretchC
  1757  06C5  3088               	movlw	high (_Font| (0+32768))
  1758  06C6  1803               	skipnc
  1759  06C7  3E01               	addlw	1
  1760  06C8  00A6               	movwf	??_SSD1306_PutStretchC+1
  1761  06C9  0833               	movf	SSD1306_PutStretchC@offs,w
  1762  06CA  0725               	addwf	??_SSD1306_PutStretchC,w
  1763  06CB  0084               	movwf	4
  1764  06CC  0826               	movf	??_SSD1306_PutStretchC+1,w
  1765  06CD  1803               	skipnc
  1766  06CE  0A26               	incf	??_SSD1306_PutStretchC+1,w
  1767  06CF  00FF               	movwf	btemp+1
  1768  06D0  120A  158A  2000  120A  118A  	fcall	stringtab
  1769  06D5  00A7               	movwf	??_SSD1306_PutStretchC+2
  1770  06D6  0827               	movf	??_SSD1306_PutStretchC+2,w
  1771  06D7  00B2               	movwf	SSD1306_PutStretchC@font_c
  1772                           
  1773                           ;./unbuffered_ssd1306.h: 445:     } else {
  1774  06D8  2EFF               	goto	l1500
  1775  06D9                     l1496:
  1776                           
  1777                           ;./unbuffered_ssd1306.h: 446:         offs = (c - 'S')*5;
  1778  06D9  3005               	movlw	5
  1779  06DA  00A5               	movwf	??_SSD1306_PutStretchC
  1780  06DB  0825               	movf	??_SSD1306_PutStretchC,w
  1781  06DC  00F0               	movwf	___bmul@multiplicand
  1782  06DD  0837               	movf	SSD1306_PutStretchC@c,w
  1783  06DE  3EAD               	addlw	173
  1784  06DF  120A  118A  21E0  120A  118A  	fcall	___bmul
  1785  06E4  1283               	bcf	3,5	;RP0=0, select bank0
  1786  06E5  1303               	bcf	3,6	;RP1=0, select bank0
  1787  06E6  00A6               	movwf	??_SSD1306_PutStretchC+1
  1788  06E7  0826               	movf	??_SSD1306_PutStretchC+1,w
  1789  06E8  00B3               	movwf	SSD1306_PutStretchC@offs
  1790  06E9                     l1498:
  1791                           
  1792                           ;./unbuffered_ssd1306.h: 447:         font_c = Font2[offs + i];
  1793  06E9  0836               	movf	SSD1306_PutStretchC@i_107,w
  1794  06EA  3E11               	addlw	low (_Font2| (0+32768))
  1795  06EB  00A5               	movwf	??_SSD1306_PutStretchC
  1796  06EC  3089               	movlw	high (_Font2| (0+32768))
  1797  06ED  1803               	skipnc
  1798  06EE  3E01               	addlw	1
  1799  06EF  00A6               	movwf	??_SSD1306_PutStretchC+1
  1800  06F0  0833               	movf	SSD1306_PutStretchC@offs,w
  1801  06F1  0725               	addwf	??_SSD1306_PutStretchC,w
  1802  06F2  0084               	movwf	4
  1803  06F3  0826               	movf	??_SSD1306_PutStretchC+1,w
  1804  06F4  1803               	skipnc
  1805  06F5  0A26               	incf	??_SSD1306_PutStretchC+1,w
  1806  06F6  00FF               	movwf	btemp+1
  1807  06F7  120A  158A  2000  120A  118A  	fcall	stringtab
  1808  06FC  00A7               	movwf	??_SSD1306_PutStretchC+2
  1809  06FD  0827               	movf	??_SSD1306_PutStretchC+2,w
  1810  06FE  00B2               	movwf	SSD1306_PutStretchC@font_c
  1811  06FF                     l1500:
  1812                           
  1813                           ;./unbuffered_ssd1306.h: 450:     if(size_mult == 1) {
  1814  06FF  0324               	decf	SSD1306_PutStretchC@size_mult,w
  1815  0700  1D03               	btfss	3,2
  1816  0701  2F03               	goto	u1071
  1817  0702  2F04               	goto	u1070
  1818  0703                     u1071:
  1819  0703  2F11               	goto	l1504
  1820  0704                     u1070:
  1821  0704                     l1502:
  1822                           
  1823                           ;./unbuffered_ssd1306.h: 452:         I2C_Write(font_c);
  1824  0704  0832               	movf	SSD1306_PutStretchC@font_c,w
  1825  0705  00A5               	movwf	??_SSD1306_PutStretchC
  1826  0706  01A6               	clrf	??_SSD1306_PutStretchC+1
  1827  0707  0825               	movf	??_SSD1306_PutStretchC,w
  1828  0708  00F0               	movwf	I2C_Write@data
  1829  0709  0826               	movf	??_SSD1306_PutStretchC+1,w
  1830  070A  00F1               	movwf	I2C_Write@data+1
  1831  070B  120A  118A  21C9  120A  118A  	fcall	_I2C_Write
  1832                           
  1833                           ;./unbuffered_ssd1306.h: 453:     } else {
  1834  0710  2FAF               	goto	l1540
  1835  0711                     l1504:
  1836                           
  1837                           ;./unbuffered_ssd1306.h: 456:         for(uint8_t i = 0; i < 8; i++) {
  1838  0711  01B8               	clrf	SSD1306_PutStretchC@i_111
  1839  0712                     l1510:
  1840                           
  1841                           ;./unbuffered_ssd1306.h: 457:             if(font_c & (1 << i)) {
  1842  0712  3001               	movlw	1
  1843  0713  00A5               	movwf	??_SSD1306_PutStretchC
  1844  0714  0A38               	incf	SSD1306_PutStretchC@i_111,w
  1845  0715  2F18               	goto	u1084
  1846  0716                     u1085:
  1847  0716  1003               	clrc
  1848  0717  0DA5               	rlf	??_SSD1306_PutStretchC,f
  1849  0718                     u1084:
  1850  0718  3EFF               	addlw	-1
  1851  0719  1D03               	skipz
  1852  071A  2F16               	goto	u1085
  1853  071B  0825               	movf	??_SSD1306_PutStretchC,w
  1854  071C  0532               	andwf	SSD1306_PutStretchC@font_c,w
  1855  071D  1903               	btfsc	3,2
  1856  071E  2F20               	goto	u1091
  1857  071F  2F21               	goto	u1090
  1858  0720                     u1091:
  1859  0720  2F7B               	goto	l1522
  1860  0721                     u1090:
  1861  0721                     l1512:
  1862                           
  1863                           ;./unbuffered_ssd1306.h: 458:                 for(uint8_t p = 0; p < size_mult; p++) {
  1864  0721  01B5               	clrf	SSD1306_PutStretchC@p
  1865  0722  2F75               	goto	l1520
  1866  0723                     l1514:
  1867                           
  1868                           ;./unbuffered_ssd1306.h: 460:                     uint8_t pos = (i*size_mult + p) % 8;
  1869  0723  0824               	movf	SSD1306_PutStretchC@size_mult,w
  1870  0724  00A5               	movwf	??_SSD1306_PutStretchC
  1871  0725  0825               	movf	??_SSD1306_PutStretchC,w
  1872  0726  00F0               	movwf	___bmul@multiplicand
  1873  0727  0838               	movf	SSD1306_PutStretchC@i_111,w
  1874  0728  120A  118A  21E0  120A  118A  	fcall	___bmul
  1875  072D  1283               	bcf	3,5	;RP0=0, select bank0
  1876  072E  1303               	bcf	3,6	;RP1=0, select bank0
  1877  072F  0735               	addwf	SSD1306_PutStretchC@p,w
  1878  0730  3907               	andlw	7
  1879  0731  00A6               	movwf	??_SSD1306_PutStretchC+1
  1880  0732  0826               	movf	??_SSD1306_PutStretchC+1,w
  1881  0733  00AE               	movwf	SSD1306_PutStretchC@pos
  1882                           
  1883                           ;./unbuffered_ssd1306.h: 461:                     uint8_t bn = (i*size_mult + p) / 8;
  1884  0734  3008               	movlw	8
  1885  0735  00F6               	movwf	___awdiv@divisor
  1886  0736  3000               	movlw	0
  1887  0737  00F7               	movwf	___awdiv@divisor+1
  1888  0738  0838               	movf	SSD1306_PutStretchC@i_111,w
  1889  0739  00A5               	movwf	??_SSD1306_PutStretchC
  1890  073A  01A6               	clrf	??_SSD1306_PutStretchC+1
  1891  073B  0825               	movf	??_SSD1306_PutStretchC,w
  1892  073C  00F0               	movwf	___wmul@multiplier
  1893  073D  0826               	movf	??_SSD1306_PutStretchC+1,w
  1894  073E  00F1               	movwf	___wmul@multiplier+1
  1895  073F  0824               	movf	SSD1306_PutStretchC@size_mult,w
  1896  0740  00A7               	movwf	??_SSD1306_PutStretchC+2
  1897  0741  01A8               	clrf	??_SSD1306_PutStretchC+3
  1898  0742  0827               	movf	??_SSD1306_PutStretchC+2,w
  1899  0743  00F2               	movwf	___wmul@multiplicand
  1900  0744  0828               	movf	??_SSD1306_PutStretchC+3,w
  1901  0745  00F3               	movwf	___wmul@multiplicand+1
  1902  0746  120A  118A  220E  120A  118A  	fcall	___wmul
  1903  074B  1283               	bcf	3,5	;RP0=0, select bank0
  1904  074C  1303               	bcf	3,6	;RP1=0, select bank0
  1905  074D  0835               	movf	SSD1306_PutStretchC@p,w
  1906  074E  0770               	addwf	?___wmul,w
  1907  074F  00F8               	movwf	___awdiv@dividend
  1908  0750  3000               	movlw	0
  1909  0751  1803               	skipnc
  1910  0752  3001               	movlw	1
  1911  0753  0771               	addwf	?___wmul+1,w
  1912  0754  00F9               	movwf	___awdiv@dividend+1
  1913  0755  120A  118A  2414  120A  118A  	fcall	___awdiv
  1914  075A  0876               	movf	?___awdiv,w
  1915  075B  1283               	bcf	3,5	;RP0=0, select bank0
  1916  075C  1303               	bcf	3,6	;RP1=0, select bank0
  1917  075D  00A9               	movwf	??_SSD1306_PutStretchC+4
  1918  075E  0829               	movf	??_SSD1306_PutStretchC+4,w
  1919  075F  00AF               	movwf	SSD1306_PutStretchC@bn
  1920  0760                     l1516:
  1921                           
  1922                           ;./unbuffered_ssd1306.h: 463:                     b[bn] |= (1 << pos);
  1923  0760  3001               	movlw	1
  1924  0761  00A5               	movwf	??_SSD1306_PutStretchC
  1925  0762  0A2E               	incf	SSD1306_PutStretchC@pos,w
  1926  0763  2F66               	goto	u1104
  1927  0764                     u1105:
  1928  0764  1003               	clrc
  1929  0765  0DA5               	rlf	??_SSD1306_PutStretchC,f
  1930  0766                     u1104:
  1931  0766  3EFF               	addlw	-1
  1932  0767  1D03               	skipz
  1933  0768  2F64               	goto	u1105
  1934  0769  0825               	movf	??_SSD1306_PutStretchC,w
  1935  076A  00A6               	movwf	??_SSD1306_PutStretchC+1
  1936  076B  082F               	movf	SSD1306_PutStretchC@bn,w
  1937  076C  3E2A               	addlw	(low (SSD1306_PutStretchC@b| 0))& (0+255)
  1938  076D  0084               	movwf	4
  1939  076E  0826               	movf	??_SSD1306_PutStretchC+1,w
  1940  076F  1383               	bcf	3,7	;select IRP bank0
  1941  0770  0480               	iorwf	0,f
  1942  0771                     l1518:
  1943                           
  1944                           ;./unbuffered_ssd1306.h: 465:                 }
  1945  0771  3001               	movlw	1
  1946  0772  00A5               	movwf	??_SSD1306_PutStretchC
  1947  0773  0825               	movf	??_SSD1306_PutStretchC,w
  1948  0774  07B5               	addwf	SSD1306_PutStretchC@p,f
  1949  0775                     l1520:
  1950  0775  0824               	movf	SSD1306_PutStretchC@size_mult,w
  1951  0776  0235               	subwf	SSD1306_PutStretchC@p,w
  1952  0777  1C03               	skipc
  1953  0778  2F7A               	goto	u1111
  1954  0779  2F7B               	goto	u1110
  1955  077A                     u1111:
  1956  077A  2F23               	goto	l1514
  1957  077B                     u1110:
  1958  077B                     l1522:
  1959                           
  1960                           ;./unbuffered_ssd1306.h: 467:         }
  1961  077B  3001               	movlw	1
  1962  077C  00A5               	movwf	??_SSD1306_PutStretchC
  1963  077D  0825               	movf	??_SSD1306_PutStretchC,w
  1964  077E  07B8               	addwf	SSD1306_PutStretchC@i_111,f
  1965  077F                     l1524:
  1966  077F  3008               	movlw	8
  1967  0780  0238               	subwf	SSD1306_PutStretchC@i_111,w
  1968  0781  1C03               	skipc
  1969  0782  2F84               	goto	u1121
  1970  0783  2F85               	goto	u1120
  1971  0784                     u1121:
  1972  0784  2F12               	goto	l1510
  1973  0785                     u1120:
  1974  0785                     l1526:
  1975                           
  1976                           ;./unbuffered_ssd1306.h: 470:         for(uint8_t i = 0; i < size_mult; i++) {
  1977  0785  01B1               	clrf	SSD1306_PutStretchC@i_115
  1978  0786  2FA9               	goto	l1538
  1979  0787                     l1528:
  1980                           
  1981                           ;./unbuffered_ssd1306.h: 471:             for(uint8_t bn = 0; bn < size_mult; bn++) {
  1982  0787  01B4               	clrf	SSD1306_PutStretchC@bn_116
  1983  0788  2F9F               	goto	l1534
  1984  0789                     l1530:
  1985                           
  1986                           ;./unbuffered_ssd1306.h: 472:                 I2C_Write(b[bn]);
  1987  0789  0834               	movf	SSD1306_PutStretchC@bn_116,w
  1988  078A  3E2A               	addlw	(low (SSD1306_PutStretchC@b| 0))& (0+255)
  1989  078B  0084               	movwf	4
  1990  078C  1383               	bcf	3,7	;select IRP bank0
  1991  078D  0800               	movf	0,w
  1992  078E  00A5               	movwf	??_SSD1306_PutStretchC
  1993  078F  01A6               	clrf	??_SSD1306_PutStretchC+1
  1994  0790  0825               	movf	??_SSD1306_PutStretchC,w
  1995  0791  00F0               	movwf	I2C_Write@data
  1996  0792  0826               	movf	??_SSD1306_PutStretchC+1,w
  1997  0793  00F1               	movwf	I2C_Write@data+1
  1998  0794  120A  118A  21C9  120A  118A  	fcall	_I2C_Write
  1999  0799                     l1532:
  2000                           
  2001                           ;./unbuffered_ssd1306.h: 473:             }
  2002  0799  3001               	movlw	1
  2003  079A  1283               	bcf	3,5	;RP0=0, select bank0
  2004  079B  1303               	bcf	3,6	;RP1=0, select bank0
  2005  079C  00A5               	movwf	??_SSD1306_PutStretchC
  2006  079D  0825               	movf	??_SSD1306_PutStretchC,w
  2007  079E  07B4               	addwf	SSD1306_PutStretchC@bn_116,f
  2008  079F                     l1534:
  2009  079F  0824               	movf	SSD1306_PutStretchC@size_mult,w
  2010  07A0  0234               	subwf	SSD1306_PutStretchC@bn_116,w
  2011  07A1  1C03               	skipc
  2012  07A2  2FA4               	goto	u1131
  2013  07A3  2FA5               	goto	u1130
  2014  07A4                     u1131:
  2015  07A4  2F89               	goto	l1530
  2016  07A5                     u1130:
  2017  07A5                     l1536:
  2018                           
  2019                           ;./unbuffered_ssd1306.h: 474:         }
  2020  07A5  3001               	movlw	1
  2021  07A6  00A5               	movwf	??_SSD1306_PutStretchC
  2022  07A7  0825               	movf	??_SSD1306_PutStretchC,w
  2023  07A8  07B1               	addwf	SSD1306_PutStretchC@i_115,f
  2024  07A9                     l1538:
  2025  07A9  0824               	movf	SSD1306_PutStretchC@size_mult,w
  2026  07AA  0231               	subwf	SSD1306_PutStretchC@i_115,w
  2027  07AB  1C03               	skipc
  2028  07AC  2FAE               	goto	u1141
  2029  07AD  2FAF               	goto	u1140
  2030  07AE                     u1141:
  2031  07AE  2F87               	goto	l1528
  2032  07AF                     u1140:
  2033  07AF                     l1540:
  2034                           
  2035                           ;./unbuffered_ssd1306.h: 476:   }
  2036  07AF  3001               	movlw	1
  2037  07B0  1283               	bcf	3,5	;RP0=0, select bank0
  2038  07B1  1303               	bcf	3,6	;RP1=0, select bank0
  2039  07B2  00A5               	movwf	??_SSD1306_PutStretchC
  2040  07B3  0825               	movf	??_SSD1306_PutStretchC,w
  2041  07B4  07B6               	addwf	SSD1306_PutStretchC@i_107,f
  2042  07B5                     l1542:
  2043  07B5  3005               	movlw	5
  2044  07B6  0236               	subwf	SSD1306_PutStretchC@i_107,w
  2045  07B7  1C03               	skipc
  2046  07B8  2FBA               	goto	u1151
  2047  07B9  2FBB               	goto	u1150
  2048  07BA                     u1151:
  2049  07BA  2EA4               	goto	l1490
  2050  07BB                     u1150:
  2051  07BB                     l1544:
  2052                           
  2053                           ;./unbuffered_ssd1306.h: 477:   I2C_End();
  2054  07BB  120A  118A  21C0  120A  118A  	fcall	_I2C_End
  2055  07C0                     l1546:
  2056                           
  2057                           ;./unbuffered_ssd1306.h: 479:   x_pos += size_mult;
  2058  07C0  1283               	bcf	3,5	;RP0=0, select bank0
  2059  07C1  1303               	bcf	3,6	;RP1=0, select bank0
  2060  07C2  0824               	movf	SSD1306_PutStretchC@size_mult,w
  2061  07C3  00A5               	movwf	??_SSD1306_PutStretchC
  2062  07C4  0825               	movf	??_SSD1306_PutStretchC,w
  2063  07C5  07C7               	addwf	_x_pos,f
  2064  07C6                     l1548:
  2065                           
  2066                           ;./unbuffered_ssd1306.h: 480:   if(x_pos > 21) {
  2067  07C6  3016               	movlw	22
  2068  07C7  0247               	subwf	_x_pos,w
  2069  07C8  1C03               	skipc
  2070  07C9  2FCB               	goto	u1161
  2071  07CA  2FCC               	goto	u1160
  2072  07CB                     u1161:
  2073  07CB  2FD7               	goto	l1556
  2074  07CC                     u1160:
  2075  07CC                     l1550:
  2076                           
  2077                           ;./unbuffered_ssd1306.h: 481:       x_pos = 1;
  2078  07CC  01C7               	clrf	_x_pos
  2079  07CD  0AC7               	incf	_x_pos,f
  2080  07CE                     l1552:
  2081                           
  2082                           ;./unbuffered_ssd1306.h: 482:       if(wrap) {
  2083  07CE  0845               	movf	_wrap,w
  2084  07CF  1903               	btfsc	3,2
  2085  07D0  2FD2               	goto	u1171
  2086  07D1  2FD3               	goto	u1170
  2087  07D2                     u1171:
  2088  07D2  2FD7               	goto	l1556
  2089  07D3                     u1170:
  2090  07D3                     l1554:
  2091                           
  2092                           ;./unbuffered_ssd1306.h: 483:           y_pos+=size_mult;
  2093  07D3  0824               	movf	SSD1306_PutStretchC@size_mult,w
  2094  07D4  00A5               	movwf	??_SSD1306_PutStretchC
  2095  07D5  0825               	movf	??_SSD1306_PutStretchC,w
  2096  07D6  07C6               	addwf	_y_pos,f
  2097  07D7                     l1556:
  2098                           
  2099                           ;./unbuffered_ssd1306.h: 488:   ssd1306_command(0x20);
  2100  07D7  3020               	movlw	32
  2101  07D8  120A  118A  2286  120A  118A  	fcall	_ssd1306_command
  2102  07DD                     l1558:
  2103                           
  2104                           ;./unbuffered_ssd1306.h: 489:   ssd1306_command(0x00);
  2105  07DD  3000               	movlw	0
  2106  07DE  120A  118A  2286  120A  118A  	fcall	_ssd1306_command
  2107  07E3                     l170:
  2108  07E3  0008               	return
  2109  07E4                     __end_of_SSD1306_PutStretchC:
  2110                           
  2111                           	psect	text3
  2112  020E                     __ptext3:	
  2113 ;; *************** function ___wmul *****************
  2114 ;; Defined at:
  2115 ;;		line 15 in file "C:\Program Files\Microchip\xc8\v2.36\pic\sources\c90\common\Umul16.c"
  2116 ;; Parameters:    Size  Location     Type
  2117 ;;  multiplier      2    0[COMMON] unsigned int 
  2118 ;;  multiplicand    2    2[COMMON] unsigned int 
  2119 ;; Auto vars:     Size  Location     Type
  2120 ;;  product         2    4[COMMON] unsigned int 
  2121 ;; Return value:  Size  Location     Type
  2122 ;;                  2    0[COMMON] unsigned int 
  2123 ;; Registers used:
  2124 ;;		wreg, status,2, status,0
  2125 ;; Tracked objects:
  2126 ;;		On entry : 0/0
  2127 ;;		On exit  : 0/0
  2128 ;;		Unchanged: 0/0
  2129 ;; Data sizes:     COMMON   BANK0   BANK1   BANK3   BANK2
  2130 ;;      Params:         4       0       0       0       0
  2131 ;;      Locals:         2       0       0       0       0
  2132 ;;      Temps:          0       0       0       0       0
  2133 ;;      Totals:         6       0       0       0       0
  2134 ;;Total ram usage:        6 bytes
  2135 ;; Hardware stack levels used: 1
  2136 ;; This function calls:
  2137 ;;		Nothing
  2138 ;; This function is called by:
  2139 ;;		_SSD1306_PutStretchC
  2140 ;; This function uses a non-reentrant model
  2141 ;;
  2142                           
  2143  020E                     ___wmul:	
  2144                           ;psect for function ___wmul
  2145                           
  2146  020E                     l1348:	
  2147                           ;incstack = 0
  2148                           ; Regs used in ___wmul: [wreg+status,2+status,0]
  2149                           
  2150  020E  01F4               	clrf	___wmul@product
  2151  020F  01F5               	clrf	___wmul@product+1
  2152  0210                     l1350:
  2153  0210  1C70               	btfss	___wmul@multiplier,0
  2154  0211  2A13               	goto	u791
  2155  0212  2A14               	goto	u790
  2156  0213                     u791:
  2157  0213  2A1A               	goto	l286
  2158  0214                     u790:
  2159  0214                     l1352:
  2160  0214  0872               	movf	___wmul@multiplicand,w
  2161  0215  07F4               	addwf	___wmul@product,f
  2162  0216  1803               	skipnc
  2163  0217  0AF5               	incf	___wmul@product+1,f
  2164  0218  0873               	movf	___wmul@multiplicand+1,w
  2165  0219  07F5               	addwf	___wmul@product+1,f
  2166  021A                     l286:
  2167  021A  3001               	movlw	1
  2168  021B                     u805:
  2169  021B  1003               	clrc
  2170  021C  0DF2               	rlf	___wmul@multiplicand,f
  2171  021D  0DF3               	rlf	___wmul@multiplicand+1,f
  2172  021E  3EFF               	addlw	-1
  2173  021F  1D03               	skipz
  2174  0220  2A1B               	goto	u805
  2175  0221                     l1354:
  2176  0221  3001               	movlw	1
  2177  0222                     u815:
  2178  0222  1003               	clrc
  2179  0223  0CF1               	rrf	___wmul@multiplier+1,f
  2180  0224  0CF0               	rrf	___wmul@multiplier,f
  2181  0225  3EFF               	addlw	-1
  2182  0226  1D03               	skipz
  2183  0227  2A22               	goto	u815
  2184  0228                     l1356:
  2185  0228  0870               	movf	___wmul@multiplier,w
  2186  0229  0471               	iorwf	___wmul@multiplier+1,w
  2187  022A  1D03               	btfss	3,2
  2188  022B  2A2D               	goto	u821
  2189  022C  2A2E               	goto	u820
  2190  022D                     u821:
  2191  022D  2A10               	goto	l1350
  2192  022E                     u820:
  2193  022E                     l1358:
  2194  022E  0875               	movf	___wmul@product+1,w
  2195  022F  00F1               	movwf	?___wmul+1
  2196  0230  0874               	movf	___wmul@product,w
  2197  0231  00F0               	movwf	?___wmul
  2198  0232                     l288:
  2199  0232  0008               	return
  2200  0233                     __end_of___wmul:
  2201                           
  2202                           	psect	text4
  2203  0233                     __ptext4:	
  2204 ;; *************** function ___lbmod *****************
  2205 ;; Defined at:
  2206 ;;		line 4 in file "C:\Program Files\Microchip\xc8\v2.36\pic\sources\c90\common\lbmod.c"
  2207 ;; Parameters:    Size  Location     Type
  2208 ;;  dividend        1    wreg     unsigned char 
  2209 ;;  divisor         1    0[COMMON] unsigned char 
  2210 ;; Auto vars:     Size  Location     Type
  2211 ;;  dividend        1    4[COMMON] unsigned char 
  2212 ;;  rem             1    6[COMMON] unsigned char 
  2213 ;;  counter         1    5[COMMON] unsigned char 
  2214 ;; Return value:  Size  Location     Type
  2215 ;;                  1    wreg      unsigned char 
  2216 ;; Registers used:
  2217 ;;		wreg, status,2, status,0
  2218 ;; Tracked objects:
  2219 ;;		On entry : 0/0
  2220 ;;		On exit  : 0/0
  2221 ;;		Unchanged: 0/0
  2222 ;; Data sizes:     COMMON   BANK0   BANK1   BANK3   BANK2
  2223 ;;      Params:         1       0       0       0       0
  2224 ;;      Locals:         3       0       0       0       0
  2225 ;;      Temps:          3       0       0       0       0
  2226 ;;      Totals:         7       0       0       0       0
  2227 ;;Total ram usage:        7 bytes
  2228 ;; Hardware stack levels used: 1
  2229 ;; This function calls:
  2230 ;;		Nothing
  2231 ;; This function is called by:
  2232 ;;		_SSD1306_PutStretchC
  2233 ;; This function uses a non-reentrant model
  2234 ;;
  2235                           
  2236  0233                     ___lbmod:	
  2237                           ;psect for function ___lbmod
  2238                           
  2239                           
  2240                           ;incstack = 0
  2241                           ; Regs used in ___lbmod: [wreg+status,2+status,0]
  2242                           ;___lbmod@dividend stored from wreg
  2243  0233  00F4               	movwf	___lbmod@dividend
  2244  0234                     l1420:
  2245  0234  3008               	movlw	8
  2246  0235  00F1               	movwf	??___lbmod
  2247  0236  0871               	movf	??___lbmod,w
  2248  0237  00F5               	movwf	___lbmod@counter
  2249  0238                     l1422:
  2250  0238  01F6               	clrf	___lbmod@rem
  2251  0239                     l1424:
  2252  0239  0874               	movf	___lbmod@dividend,w
  2253  023A  00F1               	movwf	??___lbmod
  2254  023B  3007               	movlw	7
  2255  023C                     u955:
  2256  023C  1003               	clrc
  2257  023D  0CF1               	rrf	??___lbmod,f
  2258  023E  3EFF               	addlw	-1
  2259  023F  1D03               	skipz
  2260  0240  2A3C               	goto	u955
  2261  0241  0876               	movf	___lbmod@rem,w
  2262  0242  00F2               	movwf	??___lbmod+1
  2263  0243  0772               	addwf	??___lbmod+1,w
  2264  0244  0471               	iorwf	??___lbmod,w
  2265  0245  00F3               	movwf	??___lbmod+2
  2266  0246  0873               	movf	??___lbmod+2,w
  2267  0247  00F6               	movwf	___lbmod@rem
  2268  0248                     l1426:
  2269  0248  1003               	clrc
  2270  0249  0DF4               	rlf	___lbmod@dividend,f
  2271  024A                     l1428:
  2272  024A  0870               	movf	___lbmod@divisor,w
  2273  024B  0276               	subwf	___lbmod@rem,w
  2274  024C  1C03               	skipc
  2275  024D  2A4F               	goto	u961
  2276  024E  2A50               	goto	u960
  2277  024F                     u961:
  2278  024F  2A52               	goto	l496
  2279  0250                     u960:
  2280  0250                     l1430:
  2281  0250  0870               	movf	___lbmod@divisor,w
  2282  0251  02F6               	subwf	___lbmod@rem,f
  2283  0252                     l496:
  2284  0252  3001               	movlw	1
  2285  0253  02F5               	subwf	___lbmod@counter,f
  2286  0254  1D03               	btfss	3,2
  2287  0255  2A57               	goto	u971
  2288  0256  2A58               	goto	u970
  2289  0257                     u971:
  2290  0257  2A39               	goto	l1424
  2291  0258                     u970:
  2292  0258                     l1432:
  2293  0258  0876               	movf	___lbmod@rem,w
  2294  0259                     l498:
  2295  0259  0008               	return
  2296  025A                     __end_of___lbmod:
  2297                           
  2298                           	psect	text5
  2299  01E0                     __ptext5:	
  2300 ;; *************** function ___bmul *****************
  2301 ;; Defined at:
  2302 ;;		line 4 in file "C:\Program Files\Microchip\xc8\v2.36\pic\sources\c90\common\Umul8.c"
  2303 ;; Parameters:    Size  Location     Type
  2304 ;;  multiplier      1    wreg     unsigned char 
  2305 ;;  multiplicand    1    0[COMMON] unsigned char 
  2306 ;; Auto vars:     Size  Location     Type
  2307 ;;  multiplier      1    3[COMMON] unsigned char 
  2308 ;;  product         1    2[COMMON] unsigned char 
  2309 ;; Return value:  Size  Location     Type
  2310 ;;                  1    wreg      unsigned char 
  2311 ;; Registers used:
  2312 ;;		wreg, status,2, status,0
  2313 ;; Tracked objects:
  2314 ;;		On entry : 0/0
  2315 ;;		On exit  : 0/0
  2316 ;;		Unchanged: 0/0
  2317 ;; Data sizes:     COMMON   BANK0   BANK1   BANK3   BANK2
  2318 ;;      Params:         1       0       0       0       0
  2319 ;;      Locals:         2       0       0       0       0
  2320 ;;      Temps:          1       0       0       0       0
  2321 ;;      Totals:         4       0       0       0       0
  2322 ;;Total ram usage:        4 bytes
  2323 ;; Hardware stack levels used: 1
  2324 ;; This function calls:
  2325 ;;		Nothing
  2326 ;; This function is called by:
  2327 ;;		_SSD1306_PutStretchC
  2328 ;;		_SSD1306_PutC
  2329 ;;		_SSD1306_PutCustomC
  2330 ;; This function uses a non-reentrant model
  2331 ;;
  2332                           
  2333  01E0                     ___bmul:	
  2334                           ;psect for function ___bmul
  2335                           
  2336                           
  2337                           ;incstack = 0
  2338                           ; Regs used in ___bmul: [wreg+status,2+status,0]
  2339                           ;___bmul@multiplier stored from wreg
  2340  01E0  00F3               	movwf	___bmul@multiplier
  2341  01E1                     l1362:
  2342  01E1  01F2               	clrf	___bmul@product
  2343  01E2                     l1364:
  2344  01E2  1C73               	btfss	___bmul@multiplier,0
  2345  01E3  29E5               	goto	u831
  2346  01E4  29E6               	goto	u830
  2347  01E5                     u831:
  2348  01E5  29EA               	goto	l1368
  2349  01E6                     u830:
  2350  01E6                     l1366:
  2351  01E6  0870               	movf	___bmul@multiplicand,w
  2352  01E7  00F1               	movwf	??___bmul
  2353  01E8  0871               	movf	??___bmul,w
  2354  01E9  07F2               	addwf	___bmul@product,f
  2355  01EA                     l1368:
  2356  01EA  1003               	clrc
  2357  01EB  0DF0               	rlf	___bmul@multiplicand,f
  2358  01EC                     l1370:
  2359  01EC  1003               	clrc
  2360  01ED  0CF3               	rrf	___bmul@multiplier,f
  2361  01EE  0873               	movf	___bmul@multiplier,w
  2362  01EF  1D03               	btfss	3,2
  2363  01F0  29F2               	goto	u841
  2364  01F1  29F3               	goto	u840
  2365  01F2                     u841:
  2366  01F2  29E2               	goto	l1364
  2367  01F3                     u840:
  2368  01F3                     l1372:
  2369  01F3  0872               	movf	___bmul@product,w
  2370  01F4                     l312:
  2371  01F4  0008               	return
  2372  01F5                     __end_of___bmul:
  2373                           
  2374                           	psect	text6
  2375  0414                     __ptext6:	
  2376 ;; *************** function ___awdiv *****************
  2377 ;; Defined at:
  2378 ;;		line 5 in file "C:\Program Files\Microchip\xc8\v2.36\pic\sources\c90\common\awdiv.c"
  2379 ;; Parameters:    Size  Location     Type
  2380 ;;  divisor         2    6[COMMON] int 
  2381 ;;  dividend        2    8[COMMON] int 
  2382 ;; Auto vars:     Size  Location     Type
  2383 ;;  quotient        2    2[BANK0 ] int 
  2384 ;;  sign            1    1[BANK0 ] unsigned char 
  2385 ;;  counter         1    0[BANK0 ] unsigned char 
  2386 ;; Return value:  Size  Location     Type
  2387 ;;                  2    6[COMMON] int 
  2388 ;; Registers used:
  2389 ;;		wreg, status,2, status,0
  2390 ;; Tracked objects:
  2391 ;;		On entry : 0/0
  2392 ;;		On exit  : 0/0
  2393 ;;		Unchanged: 0/0
  2394 ;; Data sizes:     COMMON   BANK0   BANK1   BANK3   BANK2
  2395 ;;      Params:         4       0       0       0       0
  2396 ;;      Locals:         0       4       0       0       0
  2397 ;;      Temps:          1       0       0       0       0
  2398 ;;      Totals:         5       4       0       0       0
  2399 ;;Total ram usage:        9 bytes
  2400 ;; Hardware stack levels used: 1
  2401 ;; This function calls:
  2402 ;;		Nothing
  2403 ;; This function is called by:
  2404 ;;		_SSD1306_PutStretchC
  2405 ;; This function uses a non-reentrant model
  2406 ;;
  2407                           
  2408  0414                     ___awdiv:	
  2409                           ;psect for function ___awdiv
  2410                           
  2411  0414                     l1376:	
  2412                           ;incstack = 0
  2413                           ; Regs used in ___awdiv: [wreg+status,2+status,0]
  2414                           
  2415  0414  1283               	bcf	3,5	;RP0=0, select bank0
  2416  0415  1303               	bcf	3,6	;RP1=0, select bank0
  2417  0416  01A1               	clrf	___awdiv@sign
  2418  0417                     l1378:
  2419  0417  1FF7               	btfss	___awdiv@divisor+1,7
  2420  0418  2C1A               	goto	u851
  2421  0419  2C1B               	goto	u850
  2422  041A                     u851:
  2423  041A  2C22               	goto	l1384
  2424  041B                     u850:
  2425  041B                     l1380:
  2426  041B  09F6               	comf	___awdiv@divisor,f
  2427  041C  09F7               	comf	___awdiv@divisor+1,f
  2428  041D  0AF6               	incf	___awdiv@divisor,f
  2429  041E  1903               	skipnz
  2430  041F  0AF7               	incf	___awdiv@divisor+1,f
  2431  0420                     l1382:
  2432  0420  01A1               	clrf	___awdiv@sign
  2433  0421  0AA1               	incf	___awdiv@sign,f
  2434  0422                     l1384:
  2435  0422  1FF9               	btfss	___awdiv@dividend+1,7
  2436  0423  2C25               	goto	u861
  2437  0424  2C26               	goto	u860
  2438  0425                     u861:
  2439  0425  2C2F               	goto	l1390
  2440  0426                     u860:
  2441  0426                     l1386:
  2442  0426  09F8               	comf	___awdiv@dividend,f
  2443  0427  09F9               	comf	___awdiv@dividend+1,f
  2444  0428  0AF8               	incf	___awdiv@dividend,f
  2445  0429  1903               	skipnz
  2446  042A  0AF9               	incf	___awdiv@dividend+1,f
  2447  042B                     l1388:
  2448  042B  3001               	movlw	1
  2449  042C  00FA               	movwf	??___awdiv
  2450  042D  087A               	movf	??___awdiv,w
  2451  042E  06A1               	xorwf	___awdiv@sign,f
  2452  042F                     l1390:
  2453  042F  01A2               	clrf	___awdiv@quotient
  2454  0430  01A3               	clrf	___awdiv@quotient+1
  2455  0431                     l1392:
  2456  0431  0876               	movf	___awdiv@divisor,w
  2457  0432  0477               	iorwf	___awdiv@divisor+1,w
  2458  0433  1903               	btfsc	3,2
  2459  0434  2C36               	goto	u871
  2460  0435  2C37               	goto	u870
  2461  0436                     u871:
  2462  0436  2C6E               	goto	l1412
  2463  0437                     u870:
  2464  0437                     l1394:
  2465  0437  01A0               	clrf	___awdiv@counter
  2466  0438  0AA0               	incf	___awdiv@counter,f
  2467  0439  2C45               	goto	l1400
  2468  043A                     l1396:
  2469  043A  3001               	movlw	1
  2470  043B                     u885:
  2471  043B  1003               	clrc
  2472  043C  0DF6               	rlf	___awdiv@divisor,f
  2473  043D  0DF7               	rlf	___awdiv@divisor+1,f
  2474  043E  3EFF               	addlw	-1
  2475  043F  1D03               	skipz
  2476  0440  2C3B               	goto	u885
  2477  0441                     l1398:
  2478  0441  3001               	movlw	1
  2479  0442  00FA               	movwf	??___awdiv
  2480  0443  087A               	movf	??___awdiv,w
  2481  0444  07A0               	addwf	___awdiv@counter,f
  2482  0445                     l1400:
  2483  0445  1FF7               	btfss	___awdiv@divisor+1,7
  2484  0446  2C48               	goto	u891
  2485  0447  2C49               	goto	u890
  2486  0448                     u891:
  2487  0448  2C3A               	goto	l1396
  2488  0449                     u890:
  2489  0449                     l1402:
  2490  0449  3001               	movlw	1
  2491  044A                     u905:
  2492  044A  1003               	clrc
  2493  044B  0DA2               	rlf	___awdiv@quotient,f
  2494  044C  0DA3               	rlf	___awdiv@quotient+1,f
  2495  044D  3EFF               	addlw	-1
  2496  044E  1D03               	skipz
  2497  044F  2C4A               	goto	u905
  2498  0450  0877               	movf	___awdiv@divisor+1,w
  2499  0451  0279               	subwf	___awdiv@dividend+1,w
  2500  0452  1D03               	skipz
  2501  0453  2C56               	goto	u915
  2502  0454  0876               	movf	___awdiv@divisor,w
  2503  0455  0278               	subwf	___awdiv@dividend,w
  2504  0456                     u915:
  2505  0456  1C03               	skipc
  2506  0457  2C59               	goto	u911
  2507  0458  2C5A               	goto	u910
  2508  0459                     u911:
  2509  0459  2C61               	goto	l1408
  2510  045A                     u910:
  2511  045A                     l1404:
  2512  045A  0876               	movf	___awdiv@divisor,w
  2513  045B  02F8               	subwf	___awdiv@dividend,f
  2514  045C  0877               	movf	___awdiv@divisor+1,w
  2515  045D  1C03               	skipc
  2516  045E  03F9               	decf	___awdiv@dividend+1,f
  2517  045F  02F9               	subwf	___awdiv@dividend+1,f
  2518  0460                     l1406:
  2519  0460  1422               	bsf	___awdiv@quotient,0
  2520  0461                     l1408:
  2521  0461  3001               	movlw	1
  2522  0462                     u925:
  2523  0462  1003               	clrc
  2524  0463  0CF7               	rrf	___awdiv@divisor+1,f
  2525  0464  0CF6               	rrf	___awdiv@divisor,f
  2526  0465  3EFF               	addlw	-1
  2527  0466  1D03               	skipz
  2528  0467  2C62               	goto	u925
  2529  0468                     l1410:
  2530  0468  3001               	movlw	1
  2531  0469  02A0               	subwf	___awdiv@counter,f
  2532  046A  1D03               	btfss	3,2
  2533  046B  2C6D               	goto	u931
  2534  046C  2C6E               	goto	u930
  2535  046D                     u931:
  2536  046D  2C49               	goto	l1402
  2537  046E                     u930:
  2538  046E                     l1412:
  2539  046E  0821               	movf	___awdiv@sign,w
  2540  046F  1903               	btfsc	3,2
  2541  0470  2C72               	goto	u941
  2542  0471  2C73               	goto	u940
  2543  0472                     u941:
  2544  0472  2C78               	goto	l1416
  2545  0473                     u940:
  2546  0473                     l1414:
  2547  0473  09A2               	comf	___awdiv@quotient,f
  2548  0474  09A3               	comf	___awdiv@quotient+1,f
  2549  0475  0AA2               	incf	___awdiv@quotient,f
  2550  0476  1903               	skipnz
  2551  0477  0AA3               	incf	___awdiv@quotient+1,f
  2552  0478                     l1416:
  2553  0478  0823               	movf	___awdiv@quotient+1,w
  2554  0479  00F7               	movwf	?___awdiv+1
  2555  047A  0822               	movf	___awdiv@quotient,w
  2556  047B  00F6               	movwf	?___awdiv
  2557  047C                     l439:
  2558  047C  0008               	return
  2559  047D                     __end_of___awdiv:
  2560                           
  2561                           	psect	text7
  2562  04F6                     __ptext7:	
  2563 ;; *************** function _SSD1306_Init *****************
  2564 ;; Defined at:
  2565 ;;		line 202 in file "./unbuffered_ssd1306.h"
  2566 ;; Parameters:    Size  Location     Type
  2567 ;;  vccstate        1    wreg     unsigned char 
  2568 ;;  i2caddr         1    5[COMMON] unsigned char 
  2569 ;; Auto vars:     Size  Location     Type
  2570 ;;  vccstate        1    7[COMMON] unsigned char 
  2571 ;; Return value:  Size  Location     Type
  2572 ;;                  1    wreg      void 
  2573 ;; Registers used:
  2574 ;;		wreg, status,2, status,0, pclath, cstack
  2575 ;; Tracked objects:
  2576 ;;		On entry : 0/0
  2577 ;;		On exit  : 0/0
  2578 ;;		Unchanged: 0/0
  2579 ;; Data sizes:     COMMON   BANK0   BANK1   BANK3   BANK2
  2580 ;;      Params:         1       0       0       0       0
  2581 ;;      Locals:         1       0       0       0       0
  2582 ;;      Temps:          1       0       0       0       0
  2583 ;;      Totals:         3       0       0       0       0
  2584 ;;Total ram usage:        3 bytes
  2585 ;; Hardware stack levels used: 1
  2586 ;; Hardware stack levels required when called: 3
  2587 ;; This function calls:
  2588 ;;		_ssd1306_command
  2589 ;; This function is called by:
  2590 ;;		_main
  2591 ;; This function uses a non-reentrant model
  2592 ;;
  2593                           
  2594  04F6                     _SSD1306_Init:	
  2595                           ;psect for function _SSD1306_Init
  2596                           
  2597                           
  2598                           ;incstack = 0
  2599                           ; Regs used in _SSD1306_Init: [wreg+status,2+status,0+pclath+cstack]
  2600                           ;SSD1306_Init@vccstate stored from wreg
  2601  04F6  00F7               	movwf	SSD1306_Init@vccstate
  2602  04F7                     l1608:
  2603                           
  2604                           ;./unbuffered_ssd1306.h: 203:   _vccstate = vccstate;
  2605  04F7  0877               	movf	SSD1306_Init@vccstate,w
  2606  04F8  00F6               	movwf	??_SSD1306_Init
  2607  04F9  0876               	movf	??_SSD1306_Init,w
  2608  04FA  1283               	bcf	3,5	;RP0=0, select bank0
  2609  04FB  1303               	bcf	3,6	;RP1=0, select bank0
  2610  04FC  00C3               	movwf	__vccstate
  2611                           
  2612                           ;./unbuffered_ssd1306.h: 204:   _i2caddr = i2caddr;
  2613  04FD  0875               	movf	SSD1306_Init@i2caddr,w
  2614  04FE  00F6               	movwf	??_SSD1306_Init
  2615  04FF  0876               	movf	??_SSD1306_Init,w
  2616  0500  00C4               	movwf	__i2caddr
  2617  0501                     l1610:
  2618                           
  2619                           ;./unbuffered_ssd1306.h: 212:   ssd1306_command(0xAE);
  2620  0501  30AE               	movlw	174
  2621  0502  120A  118A  2286  120A  118A  	fcall	_ssd1306_command
  2622  0507                     l1612:
  2623                           
  2624                           ;./unbuffered_ssd1306.h: 213:   ssd1306_command(0xD5);
  2625  0507  30D5               	movlw	213
  2626  0508  120A  118A  2286  120A  118A  	fcall	_ssd1306_command
  2627  050D                     l1614:
  2628                           
  2629                           ;./unbuffered_ssd1306.h: 214:   ssd1306_command(0x80);
  2630  050D  3080               	movlw	128
  2631  050E  120A  118A  2286  120A  118A  	fcall	_ssd1306_command
  2632  0513                     l1616:
  2633                           
  2634                           ;./unbuffered_ssd1306.h: 216:   ssd1306_command(0xA8);
  2635  0513  30A8               	movlw	168
  2636  0514  120A  118A  2286  120A  118A  	fcall	_ssd1306_command
  2637  0519                     l1618:
  2638                           
  2639                           ;./unbuffered_ssd1306.h: 217:   ssd1306_command(64 - 1);
  2640  0519  303F               	movlw	63
  2641  051A  120A  118A  2286  120A  118A  	fcall	_ssd1306_command
  2642  051F                     l1620:
  2643                           
  2644                           ;./unbuffered_ssd1306.h: 219:   ssd1306_command(0xD3);
  2645  051F  30D3               	movlw	211
  2646  0520  120A  118A  2286  120A  118A  	fcall	_ssd1306_command
  2647  0525                     l1622:
  2648                           
  2649                           ;./unbuffered_ssd1306.h: 220:   ssd1306_command(0x0);
  2650  0525  3000               	movlw	0
  2651  0526  120A  118A  2286  120A  118A  	fcall	_ssd1306_command
  2652  052B                     l1624:
  2653                           
  2654                           ;./unbuffered_ssd1306.h: 221:   ssd1306_command(0x40 | 0x0);
  2655  052B  3040               	movlw	64
  2656  052C  120A  118A  2286  120A  118A  	fcall	_ssd1306_command
  2657  0531                     l1626:
  2658                           
  2659                           ;./unbuffered_ssd1306.h: 222:   ssd1306_command(0x8D);
  2660  0531  308D               	movlw	141
  2661  0532  120A  118A  2286  120A  118A  	fcall	_ssd1306_command
  2662  0537                     l1628:
  2663                           
  2664                           ;./unbuffered_ssd1306.h: 223:   if (vccstate == 0x01)
  2665  0537  0377               	decf	SSD1306_Init@vccstate,w
  2666  0538  1D03               	btfss	3,2
  2667  0539  2D3B               	goto	u1311
  2668  053A  2D3C               	goto	u1310
  2669  053B                     u1311:
  2670  053B  2D43               	goto	l1632
  2671  053C                     u1310:
  2672  053C                     l1630:
  2673                           
  2674                           ;./unbuffered_ssd1306.h: 224:     { ssd1306_command(0x10); }
  2675  053C  3010               	movlw	16
  2676  053D  120A  118A  2286  120A  118A  	fcall	_ssd1306_command
  2677  0542  2D49               	goto	l80
  2678  0543                     l1632:
  2679                           
  2680                           ;./unbuffered_ssd1306.h: 226:     { ssd1306_command(0x14); }
  2681  0543  3014               	movlw	20
  2682  0544  120A  118A  2286  120A  118A  	fcall	_ssd1306_command
  2683  0549                     l80:
  2684                           
  2685                           ;./unbuffered_ssd1306.h: 227:   ssd1306_command(0x20);
  2686  0549  3020               	movlw	32
  2687  054A  120A  118A  2286  120A  118A  	fcall	_ssd1306_command
  2688                           
  2689                           ;./unbuffered_ssd1306.h: 228:   ssd1306_command(0x00);
  2690  054F  3000               	movlw	0
  2691  0550  120A  118A  2286  120A  118A  	fcall	_ssd1306_command
  2692                           
  2693                           ;./unbuffered_ssd1306.h: 229:   ssd1306_command(0xA0 | 0x1);
  2694  0555  30A1               	movlw	161
  2695  0556  120A  118A  2286  120A  118A  	fcall	_ssd1306_command
  2696                           
  2697                           ;./unbuffered_ssd1306.h: 230:   ssd1306_command(0xC8);
  2698  055B  30C8               	movlw	200
  2699  055C  120A  118A  2286  120A  118A  	fcall	_ssd1306_command
  2700                           
  2701                           ;./unbuffered_ssd1306.h: 239:   ssd1306_command(0xDA);
  2702  0561  30DA               	movlw	218
  2703  0562  120A  118A  2286  120A  118A  	fcall	_ssd1306_command
  2704                           
  2705                           ;./unbuffered_ssd1306.h: 240:   ssd1306_command(0x12);
  2706  0567  3012               	movlw	18
  2707  0568  120A  118A  2286  120A  118A  	fcall	_ssd1306_command
  2708                           
  2709                           ;./unbuffered_ssd1306.h: 241:   ssd1306_command(0x81);
  2710  056D  3081               	movlw	129
  2711  056E  120A  118A  2286  120A  118A  	fcall	_ssd1306_command
  2712  0573                     l1634:
  2713                           
  2714                           ;./unbuffered_ssd1306.h: 242:   if (vccstate == 0x01)
  2715  0573  0377               	decf	SSD1306_Init@vccstate,w
  2716  0574  1D03               	btfss	3,2
  2717  0575  2D77               	goto	u1321
  2718  0576  2D78               	goto	u1320
  2719  0577                     u1321:
  2720  0577  2D7F               	goto	l1638
  2721  0578                     u1320:
  2722  0578                     l1636:
  2723                           
  2724                           ;./unbuffered_ssd1306.h: 243:     { ssd1306_command(0x9F); }
  2725  0578  309F               	movlw	159
  2726  0579  120A  118A  2286  120A  118A  	fcall	_ssd1306_command
  2727  057E  2D85               	goto	l82
  2728  057F                     l1638:
  2729                           
  2730                           ;./unbuffered_ssd1306.h: 245:     { ssd1306_command(0xCF); }
  2731  057F  30CF               	movlw	207
  2732  0580  120A  118A  2286  120A  118A  	fcall	_ssd1306_command
  2733  0585                     l82:
  2734                           
  2735                           ;./unbuffered_ssd1306.h: 258:   ssd1306_command(0xD9);
  2736  0585  30D9               	movlw	217
  2737  0586  120A  118A  2286  120A  118A  	fcall	_ssd1306_command
  2738  058B                     l1640:
  2739                           
  2740                           ;./unbuffered_ssd1306.h: 259:   if (vccstate == 0x01)
  2741  058B  0377               	decf	SSD1306_Init@vccstate,w
  2742  058C  1D03               	btfss	3,2
  2743  058D  2D8F               	goto	u1331
  2744  058E  2D90               	goto	u1330
  2745  058F                     u1331:
  2746  058F  2D97               	goto	l1644
  2747  0590                     u1330:
  2748  0590                     l1642:
  2749                           
  2750                           ;./unbuffered_ssd1306.h: 260:     { ssd1306_command(0x22); }
  2751  0590  3022               	movlw	34
  2752  0591  120A  118A  2286  120A  118A  	fcall	_ssd1306_command
  2753  0596  2D9D               	goto	l84
  2754  0597                     l1644:
  2755                           
  2756                           ;./unbuffered_ssd1306.h: 262:     { ssd1306_command(0xF1); }
  2757  0597  30F1               	movlw	241
  2758  0598  120A  118A  2286  120A  118A  	fcall	_ssd1306_command
  2759  059D                     l84:
  2760                           
  2761                           ;./unbuffered_ssd1306.h: 263:   ssd1306_command(0xDB);
  2762  059D  30DB               	movlw	219
  2763  059E  120A  118A  2286  120A  118A  	fcall	_ssd1306_command
  2764                           
  2765                           ;./unbuffered_ssd1306.h: 264:   ssd1306_command(0x40);
  2766  05A3  3040               	movlw	64
  2767  05A4  120A  118A  2286  120A  118A  	fcall	_ssd1306_command
  2768                           
  2769                           ;./unbuffered_ssd1306.h: 265:   ssd1306_command(0xA4);
  2770  05A9  30A4               	movlw	164
  2771  05AA  120A  118A  2286  120A  118A  	fcall	_ssd1306_command
  2772                           
  2773                           ;./unbuffered_ssd1306.h: 266:   ssd1306_command(0xA6);
  2774  05AF  30A6               	movlw	166
  2775  05B0  120A  118A  2286  120A  118A  	fcall	_ssd1306_command
  2776                           
  2777                           ;./unbuffered_ssd1306.h: 268:   ssd1306_command(0x2E);
  2778  05B5  302E               	movlw	46
  2779  05B6  120A  118A  2286  120A  118A  	fcall	_ssd1306_command
  2780                           
  2781                           ;./unbuffered_ssd1306.h: 270:   ssd1306_command(0xAF);
  2782  05BB  30AF               	movlw	175
  2783  05BC  120A  118A  2286  120A  118A  	fcall	_ssd1306_command
  2784  05C1                     l85:
  2785  05C1  0008               	return
  2786  05C2                     __end_of_SSD1306_Init:
  2787                           
  2788                           	psect	text8
  2789  01F5                     __ptext8:	
  2790 ;; *************** function _SSD1306_GotoXY *****************
  2791 ;; Defined at:
  2792 ;;		line 352 in file "./unbuffered_ssd1306.h"
  2793 ;; Parameters:    Size  Location     Type
  2794 ;;  x               1    wreg     unsigned char 
  2795 ;;  y               1    0[COMMON] unsigned char 
  2796 ;; Auto vars:     Size  Location     Type
  2797 ;;  x               1    2[COMMON] unsigned char 
  2798 ;; Return value:  Size  Location     Type
  2799 ;;                  1    wreg      void 
  2800 ;; Registers used:
  2801 ;;		wreg
  2802 ;; Tracked objects:
  2803 ;;		On entry : 0/0
  2804 ;;		On exit  : 0/0
  2805 ;;		Unchanged: 0/0
  2806 ;; Data sizes:     COMMON   BANK0   BANK1   BANK3   BANK2
  2807 ;;      Params:         1       0       0       0       0
  2808 ;;      Locals:         1       0       0       0       0
  2809 ;;      Temps:          1       0       0       0       0
  2810 ;;      Totals:         3       0       0       0       0
  2811 ;;Total ram usage:        3 bytes
  2812 ;; Hardware stack levels used: 1
  2813 ;; This function calls:
  2814 ;;		Nothing
  2815 ;; This function is called by:
  2816 ;;		_main
  2817 ;; This function uses a non-reentrant model
  2818 ;;
  2819                           
  2820  01F5                     _SSD1306_GotoXY:	
  2821                           ;psect for function _SSD1306_GotoXY
  2822                           
  2823                           
  2824                           ;incstack = 0
  2825                           ; Regs used in _SSD1306_GotoXY: [wreg]
  2826                           ;SSD1306_GotoXY@x stored from wreg
  2827  01F5  00F2               	movwf	SSD1306_GotoXY@x
  2828  01F6                     l1646:
  2829                           
  2830                           ;./unbuffered_ssd1306.h: 353:   if((x > 21) || y > 8)
  2831  01F6  3016               	movlw	22
  2832  01F7  0272               	subwf	SSD1306_GotoXY@x,w
  2833  01F8  1803               	skipnc
  2834  01F9  29FB               	goto	u1341
  2835  01FA  29FC               	goto	u1340
  2836  01FB                     u1341:
  2837  01FB  2A0D               	goto	l121
  2838  01FC                     u1340:
  2839  01FC                     l1648:
  2840  01FC  3009               	movlw	9
  2841  01FD  0270               	subwf	SSD1306_GotoXY@y,w
  2842  01FE  1C03               	skipc
  2843  01FF  2A01               	goto	u1351
  2844  0200  2A02               	goto	u1350
  2845  0201                     u1351:
  2846  0201  2A03               	goto	l1650
  2847  0202                     u1350:
  2848  0202  2A0D               	goto	l121
  2849  0203                     l1650:
  2850                           
  2851                           ;./unbuffered_ssd1306.h: 355:   x_pos = x;
  2852  0203  0872               	movf	SSD1306_GotoXY@x,w
  2853  0204  00F1               	movwf	??_SSD1306_GotoXY
  2854  0205  0871               	movf	??_SSD1306_GotoXY,w
  2855  0206  1283               	bcf	3,5	;RP0=0, select bank0
  2856  0207  1303               	bcf	3,6	;RP1=0, select bank0
  2857  0208  00C7               	movwf	_x_pos
  2858                           
  2859                           ;./unbuffered_ssd1306.h: 356:   y_pos = y;
  2860  0209  0870               	movf	SSD1306_GotoXY@y,w
  2861  020A  00F1               	movwf	??_SSD1306_GotoXY
  2862  020B  0871               	movf	??_SSD1306_GotoXY,w
  2863  020C  00C6               	movwf	_y_pos
  2864  020D                     l121:
  2865  020D  0008               	return
  2866  020E                     __end_of_SSD1306_GotoXY:
  2867                           
  2868                           	psect	text9
  2869  034D                     __ptext9:	
  2870 ;; *************** function _SSD1306_ClearDisplay *****************
  2871 ;; Defined at:
  2872 ;;		line 519 in file "./unbuffered_ssd1306.h"
  2873 ;; Parameters:    Size  Location     Type
  2874 ;;		None
  2875 ;; Auto vars:     Size  Location     Type
  2876 ;;  i               2    7[COMMON] unsigned int 
  2877 ;; Return value:  Size  Location     Type
  2878 ;;                  1    wreg      void 
  2879 ;; Registers used:
  2880 ;;		wreg, status,2, status,0, pclath, cstack
  2881 ;; Tracked objects:
  2882 ;;		On entry : 0/0
  2883 ;;		On exit  : 0/0
  2884 ;;		Unchanged: 0/0
  2885 ;; Data sizes:     COMMON   BANK0   BANK1   BANK3   BANK2
  2886 ;;      Params:         0       0       0       0       0
  2887 ;;      Locals:         2       0       0       0       0
  2888 ;;      Temps:          2       0       0       0       0
  2889 ;;      Totals:         4       0       0       0       0
  2890 ;;Total ram usage:        4 bytes
  2891 ;; Hardware stack levels used: 1
  2892 ;; Hardware stack levels required when called: 3
  2893 ;; This function calls:
  2894 ;;		_I2C_Begin
  2895 ;;		_I2C_End
  2896 ;;		_I2C_Write
  2897 ;;		_ssd1306_command
  2898 ;; This function is called by:
  2899 ;;		_main
  2900 ;; This function uses a non-reentrant model
  2901 ;;
  2902                           
  2903  034D                     _SSD1306_ClearDisplay:	
  2904                           ;psect for function _SSD1306_ClearDisplay
  2905                           
  2906  034D                     l1652:	
  2907                           ;incstack = 0
  2908                           ; Regs used in _SSD1306_ClearDisplay: [wreg+status,2+status,0+pclath+cstack]
  2909                           
  2910                           
  2911                           ;./unbuffered_ssd1306.h: 521:   ssd1306_command(0x21);
  2912  034D  3021               	movlw	33
  2913  034E  120A  118A  2286  120A  118A  	fcall	_ssd1306_command
  2914                           
  2915                           ;./unbuffered_ssd1306.h: 522:   ssd1306_command(0);
  2916  0353  3000               	movlw	0
  2917  0354  120A  118A  2286  120A  118A  	fcall	_ssd1306_command
  2918                           
  2919                           ;./unbuffered_ssd1306.h: 524:   ssd1306_command(127);
  2920  0359  307F               	movlw	127
  2921  035A  120A  118A  2286  120A  118A  	fcall	_ssd1306_command
  2922                           
  2923                           ;./unbuffered_ssd1306.h: 529:   ssd1306_command(0x22);
  2924  035F  3022               	movlw	34
  2925  0360  120A  118A  2286  120A  118A  	fcall	_ssd1306_command
  2926                           
  2927                           ;./unbuffered_ssd1306.h: 530:   ssd1306_command(0);
  2928  0365  3000               	movlw	0
  2929  0366  120A  118A  2286  120A  118A  	fcall	_ssd1306_command
  2930                           
  2931                           ;./unbuffered_ssd1306.h: 532:   ssd1306_command(7);
  2932  036B  3007               	movlw	7
  2933  036C  120A  118A  2286  120A  118A  	fcall	_ssd1306_command
  2934                           
  2935                           ;./unbuffered_ssd1306.h: 539:   I2C_Begin();
  2936  0371  120A  118A  21B7  120A  118A  	fcall	_I2C_Begin
  2937                           
  2938                           ;./unbuffered_ssd1306.h: 540:   I2C_Write(_i2caddr);
  2939  0376  1283               	bcf	3,5	;RP0=0, select bank0
  2940  0377  1303               	bcf	3,6	;RP1=0, select bank0
  2941  0378  0844               	movf	__i2caddr,w
  2942  0379  00F5               	movwf	??_SSD1306_ClearDisplay
  2943  037A  01F6               	clrf	??_SSD1306_ClearDisplay+1
  2944  037B  0875               	movf	??_SSD1306_ClearDisplay,w
  2945  037C  00F0               	movwf	I2C_Write@data
  2946  037D  0876               	movf	??_SSD1306_ClearDisplay+1,w
  2947  037E  00F1               	movwf	I2C_Write@data+1
  2948  037F  120A  118A  21C9  120A  118A  	fcall	_I2C_Write
  2949                           
  2950                           ;./unbuffered_ssd1306.h: 541:   I2C_Write(0x40);
  2951  0384  3040               	movlw	64
  2952  0385  00F0               	movwf	I2C_Write@data
  2953  0386  3000               	movlw	0
  2954  0387  00F1               	movwf	I2C_Write@data+1
  2955  0388  120A  118A  21C9  120A  118A  	fcall	_I2C_Write
  2956  038D                     l1654:
  2957                           
  2958                           ;./unbuffered_ssd1306.h: 543:   for(uint16_t i = 0; i < 64 * 128 / 8; i++ )
  2959  038D  01F7               	clrf	SSD1306_ClearDisplay@i
  2960  038E  01F8               	clrf	SSD1306_ClearDisplay@i+1
  2961  038F                     l1660:
  2962                           
  2963                           ;./unbuffered_ssd1306.h: 544:     I2C_Write(0);
  2964  038F  3000               	movlw	0
  2965  0390  00F0               	movwf	I2C_Write@data
  2966  0391  00F1               	movwf	I2C_Write@data+1
  2967  0392  120A  118A  21C9  120A  118A  	fcall	_I2C_Write
  2968  0397                     l1662:
  2969  0397  3001               	movlw	1
  2970  0398  07F7               	addwf	SSD1306_ClearDisplay@i,f
  2971  0399  1803               	skipnc
  2972  039A  0AF8               	incf	SSD1306_ClearDisplay@i+1,f
  2973  039B  3000               	movlw	0
  2974  039C  07F8               	addwf	SSD1306_ClearDisplay@i+1,f
  2975  039D                     l1664:
  2976  039D  3004               	movlw	4
  2977  039E  0278               	subwf	SSD1306_ClearDisplay@i+1,w
  2978  039F  3000               	movlw	0
  2979  03A0  1903               	skipnz
  2980  03A1  0277               	subwf	SSD1306_ClearDisplay@i,w
  2981  03A2  1C03               	skipc
  2982  03A3  2BA5               	goto	u1361
  2983  03A4  2BA6               	goto	u1360
  2984  03A5                     u1361:
  2985  03A5  2B8F               	goto	l1660
  2986  03A6                     u1360:
  2987  03A6                     l1666:
  2988                           
  2989                           ;./unbuffered_ssd1306.h: 546:   I2C_End();
  2990  03A6  120A  118A  21C0  120A  118A  	fcall	_I2C_End
  2991  03AB                     l181:
  2992  03AB  0008               	return
  2993  03AC                     __end_of_SSD1306_ClearDisplay:
  2994                           
  2995                           	psect	text10
  2996  0286                     __ptext10:	
  2997 ;; *************** function _ssd1306_command *****************
  2998 ;; Defined at:
  2999 ;;		line 185 in file "./unbuffered_ssd1306.h"
  3000 ;; Parameters:    Size  Location     Type
  3001 ;;  c               1    wreg     unsigned char 
  3002 ;; Auto vars:     Size  Location     Type
  3003 ;;  c               1    4[COMMON] unsigned char 
  3004 ;;  control         1    0        unsigned char 
  3005 ;; Return value:  Size  Location     Type
  3006 ;;                  1    wreg      void 
  3007 ;; Registers used:
  3008 ;;		wreg, status,2, status,0, pclath, cstack
  3009 ;; Tracked objects:
  3010 ;;		On entry : 0/0
  3011 ;;		On exit  : 0/0
  3012 ;;		Unchanged: 0/0
  3013 ;; Data sizes:     COMMON   BANK0   BANK1   BANK3   BANK2
  3014 ;;      Params:         0       0       0       0       0
  3015 ;;      Locals:         1       0       0       0       0
  3016 ;;      Temps:          2       0       0       0       0
  3017 ;;      Totals:         3       0       0       0       0
  3018 ;;Total ram usage:        3 bytes
  3019 ;; Hardware stack levels used: 1
  3020 ;; Hardware stack levels required when called: 2
  3021 ;; This function calls:
  3022 ;;		_I2C_Begin
  3023 ;;		_I2C_End
  3024 ;;		_I2C_Write
  3025 ;; This function is called by:
  3026 ;;		_SSD1306_Init
  3027 ;;		_SSD1306_PutStretchC
  3028 ;;		_SSD1306_ClearDisplay
  3029 ;;		_SSD1306_StartScrollRight
  3030 ;;		_SSD1306_StartScrollLeft
  3031 ;;		_SSD1306_StartScrollDiagRight
  3032 ;;		_SSD1306_StartScrollDiagLeft
  3033 ;;		_SSD1306_StopScroll
  3034 ;;		_SSD1306_Dim
  3035 ;;		_SSD1306_InvertDisplay
  3036 ;;		_SSD1306_PutC
  3037 ;;		_SSD1306_PutCustomC
  3038 ;;		_SSD1306_FillScreen
  3039 ;; This function uses a non-reentrant model
  3040 ;;
  3041                           
  3042  0286                     _ssd1306_command:	
  3043                           ;psect for function _ssd1306_command
  3044                           
  3045                           
  3046                           ;incstack = 0
  3047                           ; Regs used in _ssd1306_command: [wreg+status,2+status,0+pclath+cstack]
  3048                           ;ssd1306_command@c stored from wreg
  3049  0286  00F4               	movwf	ssd1306_command@c
  3050  0287                     l1336:
  3051  0287                     l1338:
  3052                           
  3053                           ;./unbuffered_ssd1306.h: 188:     I2C_Begin();
  3054  0287  120A  118A  21B7  120A  118A  	fcall	_I2C_Begin
  3055  028C                     l1340:
  3056                           
  3057                           ;./unbuffered_ssd1306.h: 189:     I2C_Write(_i2caddr);
  3058  028C  1283               	bcf	3,5	;RP0=0, select bank0
  3059  028D  1303               	bcf	3,6	;RP1=0, select bank0
  3060  028E  0844               	movf	__i2caddr,w
  3061  028F  00F2               	movwf	??_ssd1306_command
  3062  0290  01F3               	clrf	??_ssd1306_command+1
  3063  0291  0872               	movf	??_ssd1306_command,w
  3064  0292  00F0               	movwf	I2C_Write@data
  3065  0293  0873               	movf	??_ssd1306_command+1,w
  3066  0294  00F1               	movwf	I2C_Write@data+1
  3067  0295  120A  118A  21C9  120A  118A  	fcall	_I2C_Write
  3068  029A                     l1342:
  3069                           
  3070                           ;./unbuffered_ssd1306.h: 190:     I2C_Write(control);
  3071  029A  3000               	movlw	0
  3072  029B  00F0               	movwf	I2C_Write@data
  3073  029C  00F1               	movwf	I2C_Write@data+1
  3074  029D  120A  118A  21C9  120A  118A  	fcall	_I2C_Write
  3075  02A2                     l1344:
  3076                           
  3077                           ;./unbuffered_ssd1306.h: 191:     I2C_Write(c);
  3078  02A2  0874               	movf	ssd1306_command@c,w
  3079  02A3  00F2               	movwf	??_ssd1306_command
  3080  02A4  01F3               	clrf	??_ssd1306_command+1
  3081  02A5  0872               	movf	??_ssd1306_command,w
  3082  02A6  00F0               	movwf	I2C_Write@data
  3083  02A7  0873               	movf	??_ssd1306_command+1,w
  3084  02A8  00F1               	movwf	I2C_Write@data+1
  3085  02A9  120A  118A  21C9  120A  118A  	fcall	_I2C_Write
  3086  02AE                     l1346:
  3087                           
  3088                           ;./unbuffered_ssd1306.h: 192:     I2C_End();
  3089  02AE  120A  118A  21C0  120A  118A  	fcall	_I2C_End
  3090  02B3                     l76:
  3091  02B3  0008               	return
  3092  02B4                     __end_of_ssd1306_command:
  3093                           
  3094                           	psect	text11
  3095  01C9                     __ptext11:	
  3096 ;; *************** function _I2C_Write *****************
  3097 ;; Defined at:
  3098 ;;		line 30 in file "i2c.c"
  3099 ;; Parameters:    Size  Location     Type
  3100 ;;  data            2    0[COMMON] unsigned int 
  3101 ;; Auto vars:     Size  Location     Type
  3102 ;;		None
  3103 ;; Return value:  Size  Location     Type
  3104 ;;                  1    wreg      void 
  3105 ;; Registers used:
  3106 ;;		wreg, status,2, status,0, pclath, cstack
  3107 ;; Tracked objects:
  3108 ;;		On entry : 0/0
  3109 ;;		On exit  : 0/0
  3110 ;;		Unchanged: 0/0
  3111 ;; Data sizes:     COMMON   BANK0   BANK1   BANK3   BANK2
  3112 ;;      Params:         2       0       0       0       0
  3113 ;;      Locals:         0       0       0       0       0
  3114 ;;      Temps:          0       0       0       0       0
  3115 ;;      Totals:         2       0       0       0       0
  3116 ;;Total ram usage:        2 bytes
  3117 ;; Hardware stack levels used: 1
  3118 ;; Hardware stack levels required when called: 1
  3119 ;; This function calls:
  3120 ;;		_I2C_Hold
  3121 ;; This function is called by:
  3122 ;;		_ssd1306_command
  3123 ;;		_SSD1306_PutStretchC
  3124 ;;		_SSD1306_ClearDisplay
  3125 ;;		_SSD1306_PutC
  3126 ;;		_SSD1306_PutCustomC
  3127 ;;		_SSD1306_FillScreen
  3128 ;; This function uses a non-reentrant model
  3129 ;;
  3130                           
  3131  01C9                     _I2C_Write:	
  3132                           ;psect for function _I2C_Write
  3133                           
  3134  01C9                     l1332:	
  3135                           ;incstack = 0
  3136                           ; Regs used in _I2C_Write: [wreg+status,2+status,0+pclath+cstack]
  3137                           
  3138                           
  3139                           ;i2c.c: 30: void I2C_Write(unsigned data);i2c.c: 31: {;i2c.c: 32:   I2C_Hold();
  3140  01C9  120A  118A  21D3  120A  118A  	fcall	_I2C_Hold
  3141  01CE                     l1334:
  3142                           
  3143                           ;i2c.c: 33:   SSPBUF = data;
  3144  01CE  0870               	movf	I2C_Write@data,w
  3145  01CF  1283               	bcf	3,5	;RP0=0, select bank0
  3146  01D0  1303               	bcf	3,6	;RP1=0, select bank0
  3147  01D1  0093               	movwf	19	;volatile
  3148  01D2                     l42:
  3149  01D2  0008               	return
  3150  01D3                     __end_of_I2C_Write:
  3151                           
  3152                           	psect	text12
  3153  01C0                     __ptext12:	
  3154 ;; *************** function _I2C_End *****************
  3155 ;; Defined at:
  3156 ;;		line 24 in file "i2c.c"
  3157 ;; Parameters:    Size  Location     Type
  3158 ;;		None
  3159 ;; Auto vars:     Size  Location     Type
  3160 ;;		None
  3161 ;; Return value:  Size  Location     Type
  3162 ;;                  1    wreg      void 
  3163 ;; Registers used:
  3164 ;;		wreg, status,2, status,0, pclath, cstack
  3165 ;; Tracked objects:
  3166 ;;		On entry : 0/0
  3167 ;;		On exit  : 0/0
  3168 ;;		Unchanged: 0/0
  3169 ;; Data sizes:     COMMON   BANK0   BANK1   BANK3   BANK2
  3170 ;;      Params:         0       0       0       0       0
  3171 ;;      Locals:         0       0       0       0       0
  3172 ;;      Temps:          0       0       0       0       0
  3173 ;;      Totals:         0       0       0       0       0
  3174 ;;Total ram usage:        0 bytes
  3175 ;; Hardware stack levels used: 1
  3176 ;; Hardware stack levels required when called: 1
  3177 ;; This function calls:
  3178 ;;		_I2C_Hold
  3179 ;; This function is called by:
  3180 ;;		_ssd1306_command
  3181 ;;		_SSD1306_PutStretchC
  3182 ;;		_SSD1306_ClearDisplay
  3183 ;;		_SSD1306_PutC
  3184 ;;		_SSD1306_PutCustomC
  3185 ;;		_SSD1306_FillScreen
  3186 ;; This function uses a non-reentrant model
  3187 ;;
  3188                           
  3189  01C0                     _I2C_End:	
  3190                           ;psect for function _I2C_End
  3191                           
  3192  01C0                     l1328:	
  3193                           ;incstack = 0
  3194                           ; Regs used in _I2C_End: [wreg+status,2+status,0+pclath+cstack]
  3195                           
  3196                           
  3197                           ;i2c.c: 26:   I2C_Hold();
  3198  01C0  120A  118A  21D3  120A  118A  	fcall	_I2C_Hold
  3199  01C5                     l1330:
  3200                           
  3201                           ;i2c.c: 27:   PEN = 1;
  3202  01C5  1683               	bsf	3,5	;RP0=1, select bank1
  3203  01C6  1303               	bcf	3,6	;RP1=0, select bank1
  3204  01C7  1511               	bsf	17,2	;volatile
  3205  01C8                     l39:
  3206  01C8  0008               	return
  3207  01C9                     __end_of_I2C_End:
  3208                           
  3209                           	psect	text13
  3210  01B7                     __ptext13:	
  3211 ;; *************** function _I2C_Begin *****************
  3212 ;; Defined at:
  3213 ;;		line 19 in file "i2c.c"
  3214 ;; Parameters:    Size  Location     Type
  3215 ;;		None
  3216 ;; Auto vars:     Size  Location     Type
  3217 ;;		None
  3218 ;; Return value:  Size  Location     Type
  3219 ;;                  1    wreg      void 
  3220 ;; Registers used:
  3221 ;;		wreg, status,2, status,0, pclath, cstack
  3222 ;; Tracked objects:
  3223 ;;		On entry : 0/0
  3224 ;;		On exit  : 0/0
  3225 ;;		Unchanged: 0/0
  3226 ;; Data sizes:     COMMON   BANK0   BANK1   BANK3   BANK2
  3227 ;;      Params:         0       0       0       0       0
  3228 ;;      Locals:         0       0       0       0       0
  3229 ;;      Temps:          0       0       0       0       0
  3230 ;;      Totals:         0       0       0       0       0
  3231 ;;Total ram usage:        0 bytes
  3232 ;; Hardware stack levels used: 1
  3233 ;; Hardware stack levels required when called: 1
  3234 ;; This function calls:
  3235 ;;		_I2C_Hold
  3236 ;; This function is called by:
  3237 ;;		_ssd1306_command
  3238 ;;		_SSD1306_PutStretchC
  3239 ;;		_SSD1306_ClearDisplay
  3240 ;;		_SSD1306_PutC
  3241 ;;		_SSD1306_PutCustomC
  3242 ;;		_SSD1306_FillScreen
  3243 ;; This function uses a non-reentrant model
  3244 ;;
  3245                           
  3246  01B7                     _I2C_Begin:	
  3247                           ;psect for function _I2C_Begin
  3248                           
  3249  01B7                     l1324:	
  3250                           ;incstack = 0
  3251                           ; Regs used in _I2C_Begin: [wreg+status,2+status,0+pclath+cstack]
  3252                           
  3253                           
  3254                           ;i2c.c: 21:   I2C_Hold();
  3255  01B7  120A  118A  21D3  120A  118A  	fcall	_I2C_Hold
  3256  01BC                     l1326:
  3257                           
  3258                           ;i2c.c: 22:   SEN = 1;
  3259  01BC  1683               	bsf	3,5	;RP0=1, select bank1
  3260  01BD  1303               	bcf	3,6	;RP1=0, select bank1
  3261  01BE  1411               	bsf	17,0	;volatile
  3262  01BF                     l36:
  3263  01BF  0008               	return
  3264  01C0                     __end_of_I2C_Begin:
  3265                           
  3266                           	psect	text14
  3267  01D3                     __ptext14:	
  3268 ;; *************** function _I2C_Hold *****************
  3269 ;; Defined at:
  3270 ;;		line 14 in file "i2c.c"
  3271 ;; Parameters:    Size  Location     Type
  3272 ;;		None
  3273 ;; Auto vars:     Size  Location     Type
  3274 ;;		None
  3275 ;; Return value:  Size  Location     Type
  3276 ;;                  1    wreg      void 
  3277 ;; Registers used:
  3278 ;;		wreg, status,2
  3279 ;; Tracked objects:
  3280 ;;		On entry : 0/0
  3281 ;;		On exit  : 0/0
  3282 ;;		Unchanged: 0/0
  3283 ;; Data sizes:     COMMON   BANK0   BANK1   BANK3   BANK2
  3284 ;;      Params:         0       0       0       0       0
  3285 ;;      Locals:         0       0       0       0       0
  3286 ;;      Temps:          0       0       0       0       0
  3287 ;;      Totals:         0       0       0       0       0
  3288 ;;Total ram usage:        0 bytes
  3289 ;; Hardware stack levels used: 1
  3290 ;; This function calls:
  3291 ;;		Nothing
  3292 ;; This function is called by:
  3293 ;;		_I2C_Begin
  3294 ;;		_I2C_End
  3295 ;;		_I2C_Write
  3296 ;;		_I2C_Read
  3297 ;; This function uses a non-reentrant model
  3298 ;;
  3299                           
  3300  01D3                     _I2C_Hold:	
  3301                           ;psect for function _I2C_Hold
  3302                           
  3303  01D3                     l1318:	
  3304                           ;incstack = 0
  3305                           ; Regs used in _I2C_Hold: [wreg+status,2]
  3306                           
  3307  01D3                     l1320:	
  3308                           ;i2c.c: 16:     while ( (SSPCON2 & 0b00011111) || (SSPSTAT & 0b00000100) ) ;
  3309                           
  3310  01D3  1683               	bsf	3,5	;RP0=1, select bank1
  3311  01D4  1303               	bcf	3,6	;RP1=0, select bank1
  3312  01D5  0811               	movf	17,w	;volatile
  3313  01D6  391F               	andlw	31
  3314  01D7  1D03               	btfss	3,2
  3315  01D8  29DA               	goto	u771
  3316  01D9  29DB               	goto	u770
  3317  01DA                     u771:
  3318  01DA  29D3               	goto	l1320
  3319  01DB                     u770:
  3320  01DB                     l1322:
  3321  01DB  1914               	btfsc	20,2	;volatile
  3322  01DC  29DE               	goto	u781
  3323  01DD  29DF               	goto	u780
  3324  01DE                     u781:
  3325  01DE  29D3               	goto	l1320
  3326  01DF                     u780:
  3327  01DF                     l33:
  3328  01DF  0008               	return
  3329  01E0                     __end_of_I2C_Hold:
  3330                           
  3331                           	psect	text15
  3332  02FA                     __ptext15:	
  3333 ;; *************** function _I2C_Initialize *****************
  3334 ;; Defined at:
  3335 ;;		line 3 in file "i2c.c"
  3336 ;; Parameters:    Size  Location     Type
  3337 ;;  feq_K           4   13[BANK0 ] const unsigned long 
  3338 ;; Auto vars:     Size  Location     Type
  3339 ;;		None
  3340 ;; Return value:  Size  Location     Type
  3341 ;;                  1    wreg      void 
  3342 ;; Registers used:
  3343 ;;		wreg, status,2, status,0, pclath, cstack
  3344 ;; Tracked objects:
  3345 ;;		On entry : 0/0
  3346 ;;		On exit  : 0/0
  3347 ;;		Unchanged: 0/0
  3348 ;; Data sizes:     COMMON   BANK0   BANK1   BANK3   BANK2
  3349 ;;      Params:         0       4       0       0       0
  3350 ;;      Locals:         0       0       0       0       0
  3351 ;;      Temps:          0       4       0       0       0
  3352 ;;      Totals:         0       8       0       0       0
  3353 ;;Total ram usage:        8 bytes
  3354 ;; Hardware stack levels used: 1
  3355 ;; Hardware stack levels required when called: 1
  3356 ;; This function calls:
  3357 ;;		___lldiv
  3358 ;;		___lmul
  3359 ;; This function is called by:
  3360 ;;		_main
  3361 ;; This function uses a non-reentrant model
  3362 ;;
  3363                           
  3364  02FA                     _I2C_Initialize:	
  3365                           ;psect for function _I2C_Initialize
  3366                           
  3367  02FA                     l1598:	
  3368                           ;incstack = 0
  3369                           ; Regs used in _I2C_Initialize: [wreg+status,2+status,0+pclath+cstack]
  3370                           
  3371                           
  3372                           ;i2c.c: 3: void I2C_Initialize(const unsigned long feq_K);i2c.c: 4: {;i2c.c: 5:   TRISC3
      +                           = 1; TRISC4 = 1;
  3373  02FA  1683               	bsf	3,5	;RP0=1, select bank1
  3374  02FB  1303               	bcf	3,6	;RP1=0, select bank1
  3375  02FC  1587               	bsf	7,3	;volatile
  3376  02FD  1607               	bsf	7,4	;volatile
  3377  02FE                     l1600:
  3378                           
  3379                           ;i2c.c: 7:   SSPCON = 0b00101000;
  3380  02FE  3028               	movlw	40
  3381  02FF  1283               	bcf	3,5	;RP0=0, select bank0
  3382  0300  1303               	bcf	3,6	;RP1=0, select bank0
  3383  0301  0094               	movwf	20	;volatile
  3384  0302                     l1602:
  3385                           
  3386                           ;i2c.c: 8:   SSPCON2 = 0b00000000;
  3387  0302  1683               	bsf	3,5	;RP0=1, select bank1
  3388  0303  1303               	bcf	3,6	;RP1=0, select bank1
  3389  0304  0191               	clrf	17	;volatile
  3390  0305                     l1604:
  3391                           
  3392                           ;i2c.c: 10:   SSPADD = (8000000/(4*feq_K*100))-1;
  3393  0305  1283               	bcf	3,5	;RP0=0, select bank0
  3394  0306  1303               	bcf	3,6	;RP1=0, select bank0
  3395  0307  082D               	movf	I2C_Initialize@feq_K,w
  3396  0308  00B1               	movwf	??_I2C_Initialize
  3397  0309  082E               	movf	I2C_Initialize@feq_K+1,w
  3398  030A  00B2               	movwf	??_I2C_Initialize+1
  3399  030B  082F               	movf	I2C_Initialize@feq_K+2,w
  3400  030C  00B3               	movwf	??_I2C_Initialize+2
  3401  030D  0830               	movf	I2C_Initialize@feq_K+3,w
  3402  030E  00B4               	movwf	??_I2C_Initialize+3
  3403  030F  3002               	movlw	2
  3404  0310                     u1305:
  3405  0310  1003               	clrc
  3406  0311  0DB1               	rlf	??_I2C_Initialize,f
  3407  0312  0DB2               	rlf	??_I2C_Initialize+1,f
  3408  0313  0DB3               	rlf	??_I2C_Initialize+2,f
  3409  0314  0DB4               	rlf	??_I2C_Initialize+3,f
  3410  0315                     u1300:
  3411  0315  3EFF               	addlw	-1
  3412  0316  1D03               	skipz
  3413  0317  2B10               	goto	u1305
  3414  0318  0834               	movf	??_I2C_Initialize+3,w
  3415  0319  00F3               	movwf	___lmul@multiplier+3
  3416  031A  0833               	movf	??_I2C_Initialize+2,w
  3417  031B  00F2               	movwf	___lmul@multiplier+2
  3418  031C  0832               	movf	??_I2C_Initialize+1,w
  3419  031D  00F1               	movwf	___lmul@multiplier+1
  3420  031E  0831               	movf	??_I2C_Initialize,w
  3421  031F  00F0               	movwf	___lmul@multiplier
  3422  0320  3000               	movlw	0
  3423  0321  00F7               	movwf	___lmul@multiplicand+3
  3424  0322  3000               	movlw	0
  3425  0323  00F6               	movwf	___lmul@multiplicand+2
  3426  0324  3000               	movlw	0
  3427  0325  00F5               	movwf	___lmul@multiplicand+1
  3428  0326  3064               	movlw	100
  3429  0327  00F4               	movwf	___lmul@multiplicand
  3430  0328  120A  118A  22B4  120A  118A  	fcall	___lmul
  3431  032D  0873               	movf	?___lmul+3,w
  3432  032E  1283               	bcf	3,5	;RP0=0, select bank0
  3433  032F  1303               	bcf	3,6	;RP1=0, select bank0
  3434  0330  00A3               	movwf	___lldiv@divisor+3
  3435  0331  0872               	movf	?___lmul+2,w
  3436  0332  00A2               	movwf	___lldiv@divisor+2
  3437  0333  0871               	movf	?___lmul+1,w
  3438  0334  00A1               	movwf	___lldiv@divisor+1
  3439  0335  0870               	movf	?___lmul,w
  3440  0336  00A0               	movwf	___lldiv@divisor
  3441  0337  3000               	movlw	0
  3442  0338  00A7               	movwf	___lldiv@dividend+3
  3443  0339  307A               	movlw	122
  3444  033A  00A6               	movwf	___lldiv@dividend+2
  3445  033B  3012               	movlw	18
  3446  033C  00A5               	movwf	___lldiv@dividend+1
  3447  033D  3000               	movlw	0
  3448  033E  00A4               	movwf	___lldiv@dividend
  3449  033F  120A  118A  23AC  120A  118A  	fcall	___lldiv
  3450  0344  1283               	bcf	3,5	;RP0=0, select bank0
  3451  0345  1303               	bcf	3,6	;RP1=0, select bank0
  3452  0346  0820               	movf	?___lldiv,w
  3453  0347  3EFF               	addlw	255
  3454  0348  1683               	bsf	3,5	;RP0=1, select bank1
  3455  0349  1303               	bcf	3,6	;RP1=0, select bank1
  3456  034A  0093               	movwf	19	;volatile
  3457  034B                     l1606:
  3458                           
  3459                           ;i2c.c: 11:   SSPSTAT = 0b00000000;
  3460  034B  0194               	clrf	20	;volatile
  3461  034C                     l27:
  3462  034C  0008               	return
  3463  034D                     __end_of_I2C_Initialize:
  3464                           
  3465                           	psect	text16
  3466  02B4                     __ptext16:	
  3467 ;; *************** function ___lmul *****************
  3468 ;; Defined at:
  3469 ;;		line 15 in file "C:\Program Files\Microchip\xc8\v2.36\pic\sources\c90\common\Umul32.c"
  3470 ;; Parameters:    Size  Location     Type
  3471 ;;  multiplier      4    0[COMMON] unsigned long 
  3472 ;;  multiplicand    4    4[COMMON] unsigned long 
  3473 ;; Auto vars:     Size  Location     Type
  3474 ;;  product         4    9[COMMON] unsigned long 
  3475 ;; Return value:  Size  Location     Type
  3476 ;;                  4    0[COMMON] unsigned long 
  3477 ;; Registers used:
  3478 ;;		wreg, status,2, status,0
  3479 ;; Tracked objects:
  3480 ;;		On entry : 0/0
  3481 ;;		On exit  : 0/0
  3482 ;;		Unchanged: 0/0
  3483 ;; Data sizes:     COMMON   BANK0   BANK1   BANK3   BANK2
  3484 ;;      Params:         8       0       0       0       0
  3485 ;;      Locals:         4       0       0       0       0
  3486 ;;      Temps:          1       0       0       0       0
  3487 ;;      Totals:        13       0       0       0       0
  3488 ;;Total ram usage:       13 bytes
  3489 ;; Hardware stack levels used: 1
  3490 ;; This function calls:
  3491 ;;		Nothing
  3492 ;; This function is called by:
  3493 ;;		_I2C_Initialize
  3494 ;; This function uses a non-reentrant model
  3495 ;;
  3496                           
  3497  02B4                     ___lmul:	
  3498                           ;psect for function ___lmul
  3499                           
  3500  02B4                     l1560:	
  3501                           ;incstack = 0
  3502                           ; Regs used in ___lmul: [wreg+status,2+status,0]
  3503                           
  3504  02B4  3000               	movlw	0
  3505  02B5  00FC               	movwf	___lmul@product+3
  3506  02B6  3000               	movlw	0
  3507  02B7  00FB               	movwf	___lmul@product+2
  3508  02B8  3000               	movlw	0
  3509  02B9  00FA               	movwf	___lmul@product+1
  3510  02BA  3000               	movlw	0
  3511  02BB  00F9               	movwf	___lmul@product
  3512  02BC                     l1562:
  3513  02BC  1C70               	btfss	___lmul@multiplier,0
  3514  02BD  2ABF               	goto	u1181
  3515  02BE  2AC0               	goto	u1180
  3516  02BF                     u1181:
  3517  02BF  2AD7               	goto	l1566
  3518  02C0                     u1180:
  3519  02C0                     l1564:
  3520  02C0  0874               	movf	___lmul@multiplicand,w
  3521  02C1  07F9               	addwf	___lmul@product,f
  3522  02C2  0875               	movf	___lmul@multiplicand+1,w
  3523  02C3  1103               	clrz
  3524  02C4  1803               	skipnc
  3525  02C5  3E01               	addlw	1
  3526  02C6  1903               	skipnz
  3527  02C7  2AC9               	goto	u1191
  3528  02C8  07FA               	addwf	___lmul@product+1,f
  3529  02C9                     u1191:
  3530  02C9  0876               	movf	___lmul@multiplicand+2,w
  3531  02CA  1103               	clrz
  3532  02CB  1803               	skipnc
  3533  02CC  3E01               	addlw	1
  3534  02CD  1903               	skipnz
  3535  02CE  2AD0               	goto	u1192
  3536  02CF  07FB               	addwf	___lmul@product+2,f
  3537  02D0                     u1192:
  3538  02D0  0877               	movf	___lmul@multiplicand+3,w
  3539  02D1  1103               	clrz
  3540  02D2  1803               	skipnc
  3541  02D3  3E01               	addlw	1
  3542  02D4  1903               	skipnz
  3543  02D5  2AD7               	goto	u1193
  3544  02D6  07FC               	addwf	___lmul@product+3,f
  3545  02D7                     u1193:
  3546  02D7                     l1566:
  3547  02D7  3001               	movlw	1
  3548  02D8  00F8               	movwf	??___lmul
  3549  02D9                     u1205:
  3550  02D9  1003               	clrc
  3551  02DA  0DF4               	rlf	___lmul@multiplicand,f
  3552  02DB  0DF5               	rlf	___lmul@multiplicand+1,f
  3553  02DC  0DF6               	rlf	___lmul@multiplicand+2,f
  3554  02DD  0DF7               	rlf	___lmul@multiplicand+3,f
  3555  02DE  0BF8               	decfsz	??___lmul,f
  3556  02DF  2AD9               	goto	u1205
  3557  02E0                     l1568:
  3558  02E0  3001               	movlw	1
  3559  02E1                     u1215:
  3560  02E1  1003               	clrc
  3561  02E2  0CF3               	rrf	___lmul@multiplier+3,f
  3562  02E3  0CF2               	rrf	___lmul@multiplier+2,f
  3563  02E4  0CF1               	rrf	___lmul@multiplier+1,f
  3564  02E5  0CF0               	rrf	___lmul@multiplier,f
  3565  02E6  3EFF               	addlw	-1
  3566  02E7  1D03               	skipz
  3567  02E8  2AE1               	goto	u1215
  3568  02E9  0873               	movf	___lmul@multiplier+3,w
  3569  02EA  0472               	iorwf	___lmul@multiplier+2,w
  3570  02EB  0471               	iorwf	___lmul@multiplier+1,w
  3571  02EC  0470               	iorwf	___lmul@multiplier,w
  3572  02ED  1D03               	skipz
  3573  02EE  2AF0               	goto	u1221
  3574  02EF  2AF1               	goto	u1220
  3575  02F0                     u1221:
  3576  02F0  2ABC               	goto	l1562
  3577  02F1                     u1220:
  3578  02F1                     l1570:
  3579  02F1  087C               	movf	___lmul@product+3,w
  3580  02F2  00F3               	movwf	?___lmul+3
  3581  02F3  087B               	movf	___lmul@product+2,w
  3582  02F4  00F2               	movwf	?___lmul+2
  3583  02F5  087A               	movf	___lmul@product+1,w
  3584  02F6  00F1               	movwf	?___lmul+1
  3585  02F7  0879               	movf	___lmul@product,w
  3586  02F8  00F0               	movwf	?___lmul
  3587  02F9                     l300:
  3588  02F9  0008               	return
  3589  02FA                     __end_of___lmul:
  3590                           
  3591                           	psect	text17
  3592  03AC                     __ptext17:	
  3593 ;; *************** function ___lldiv *****************
  3594 ;; Defined at:
  3595 ;;		line 5 in file "C:\Program Files\Microchip\xc8\v2.36\pic\sources\c90\common\__lldiv.c"
  3596 ;; Parameters:    Size  Location     Type
  3597 ;;  divisor         4    0[BANK0 ] unsigned long 
  3598 ;;  dividend        4    4[BANK0 ] unsigned long 
  3599 ;; Auto vars:     Size  Location     Type
  3600 ;;  quotient        4    8[BANK0 ] unsigned long 
  3601 ;;  counter         1   12[BANK0 ] unsigned char 
  3602 ;; Return value:  Size  Location     Type
  3603 ;;                  4    0[BANK0 ] unsigned long 
  3604 ;; Registers used:
  3605 ;;		wreg, status,2, status,0
  3606 ;; Tracked objects:
  3607 ;;		On entry : 0/0
  3608 ;;		On exit  : 0/0
  3609 ;;		Unchanged: 0/0
  3610 ;; Data sizes:     COMMON   BANK0   BANK1   BANK3   BANK2
  3611 ;;      Params:         0       8       0       0       0
  3612 ;;      Locals:         0       5       0       0       0
  3613 ;;      Temps:          1       0       0       0       0
  3614 ;;      Totals:         1      13       0       0       0
  3615 ;;Total ram usage:       14 bytes
  3616 ;; Hardware stack levels used: 1
  3617 ;; This function calls:
  3618 ;;		Nothing
  3619 ;; This function is called by:
  3620 ;;		_I2C_Initialize
  3621 ;; This function uses a non-reentrant model
  3622 ;;
  3623                           
  3624  03AC                     ___lldiv:	
  3625                           ;psect for function ___lldiv
  3626                           
  3627  03AC                     l1574:	
  3628                           ;incstack = 0
  3629                           ; Regs used in ___lldiv: [wreg+status,2+status,0]
  3630                           
  3631  03AC  3000               	movlw	0
  3632  03AD  1283               	bcf	3,5	;RP0=0, select bank0
  3633  03AE  1303               	bcf	3,6	;RP1=0, select bank0
  3634  03AF  00AB               	movwf	___lldiv@quotient+3
  3635  03B0  3000               	movlw	0
  3636  03B1  00AA               	movwf	___lldiv@quotient+2
  3637  03B2  3000               	movlw	0
  3638  03B3  00A9               	movwf	___lldiv@quotient+1
  3639  03B4  3000               	movlw	0
  3640  03B5  00A8               	movwf	___lldiv@quotient
  3641  03B6  0823               	movf	___lldiv@divisor+3,w
  3642  03B7  0422               	iorwf	___lldiv@divisor+2,w
  3643  03B8  0421               	iorwf	___lldiv@divisor+1,w
  3644  03B9  0420               	iorwf	___lldiv@divisor,w
  3645  03BA  1903               	skipnz
  3646  03BB  2BBD               	goto	u1231
  3647  03BC  2BBE               	goto	u1230
  3648  03BD                     u1231:
  3649  03BD  2C0B               	goto	l1594
  3650  03BE                     u1230:
  3651  03BE                     l1576:
  3652  03BE  01AC               	clrf	___lldiv@counter
  3653  03BF  0AAC               	incf	___lldiv@counter,f
  3654  03C0  2BCE               	goto	l1580
  3655  03C1                     l1578:
  3656  03C1  3001               	movlw	1
  3657  03C2  00FD               	movwf	??___lldiv
  3658  03C3                     u1245:
  3659  03C3  1003               	clrc
  3660  03C4  0DA0               	rlf	___lldiv@divisor,f
  3661  03C5  0DA1               	rlf	___lldiv@divisor+1,f
  3662  03C6  0DA2               	rlf	___lldiv@divisor+2,f
  3663  03C7  0DA3               	rlf	___lldiv@divisor+3,f
  3664  03C8  0BFD               	decfsz	??___lldiv,f
  3665  03C9  2BC3               	goto	u1245
  3666  03CA  3001               	movlw	1
  3667  03CB  00FD               	movwf	??___lldiv
  3668  03CC  087D               	movf	??___lldiv,w
  3669  03CD  07AC               	addwf	___lldiv@counter,f
  3670  03CE                     l1580:
  3671  03CE  1FA3               	btfss	___lldiv@divisor+3,7
  3672  03CF  2BD1               	goto	u1251
  3673  03D0  2BD2               	goto	u1250
  3674  03D1                     u1251:
  3675  03D1  2BC1               	goto	l1578
  3676  03D2                     u1250:
  3677  03D2                     l1582:
  3678  03D2  3001               	movlw	1
  3679  03D3  00FD               	movwf	??___lldiv
  3680  03D4                     u1265:
  3681  03D4  1003               	clrc
  3682  03D5  0DA8               	rlf	___lldiv@quotient,f
  3683  03D6  0DA9               	rlf	___lldiv@quotient+1,f
  3684  03D7  0DAA               	rlf	___lldiv@quotient+2,f
  3685  03D8  0DAB               	rlf	___lldiv@quotient+3,f
  3686  03D9  0BFD               	decfsz	??___lldiv,f
  3687  03DA  2BD4               	goto	u1265
  3688  03DB                     l1584:
  3689  03DB  0823               	movf	___lldiv@divisor+3,w
  3690  03DC  0227               	subwf	___lldiv@dividend+3,w
  3691  03DD  1D03               	skipz
  3692  03DE  2BE9               	goto	u1275
  3693  03DF  0822               	movf	___lldiv@divisor+2,w
  3694  03E0  0226               	subwf	___lldiv@dividend+2,w
  3695  03E1  1D03               	skipz
  3696  03E2  2BE9               	goto	u1275
  3697  03E3  0821               	movf	___lldiv@divisor+1,w
  3698  03E4  0225               	subwf	___lldiv@dividend+1,w
  3699  03E5  1D03               	skipz
  3700  03E6  2BE9               	goto	u1275
  3701  03E7  0820               	movf	___lldiv@divisor,w
  3702  03E8  0224               	subwf	___lldiv@dividend,w
  3703  03E9                     u1275:
  3704  03E9  1C03               	skipc
  3705  03EA  2BEC               	goto	u1271
  3706  03EB  2BED               	goto	u1270
  3707  03EC                     u1271:
  3708  03EC  2BFC               	goto	l1590
  3709  03ED                     u1270:
  3710  03ED                     l1586:
  3711  03ED  0820               	movf	___lldiv@divisor,w
  3712  03EE  02A4               	subwf	___lldiv@dividend,f
  3713  03EF  0821               	movf	___lldiv@divisor+1,w
  3714  03F0  1C03               	skipc
  3715  03F1  0F21               	incfsz	___lldiv@divisor+1,w
  3716  03F2  02A5               	subwf	___lldiv@dividend+1,f
  3717  03F3  0822               	movf	___lldiv@divisor+2,w
  3718  03F4  1C03               	skipc
  3719  03F5  0F22               	incfsz	___lldiv@divisor+2,w
  3720  03F6  02A6               	subwf	___lldiv@dividend+2,f
  3721  03F7  0823               	movf	___lldiv@divisor+3,w
  3722  03F8  1C03               	skipc
  3723  03F9  0F23               	incfsz	___lldiv@divisor+3,w
  3724  03FA  02A7               	subwf	___lldiv@dividend+3,f
  3725  03FB                     l1588:
  3726  03FB  1428               	bsf	___lldiv@quotient,0
  3727  03FC                     l1590:
  3728  03FC  3001               	movlw	1
  3729  03FD                     u1285:
  3730  03FD  1003               	clrc
  3731  03FE  0CA3               	rrf	___lldiv@divisor+3,f
  3732  03FF  0CA2               	rrf	___lldiv@divisor+2,f
  3733  0400  0CA1               	rrf	___lldiv@divisor+1,f
  3734  0401  0CA0               	rrf	___lldiv@divisor,f
  3735  0402  3EFF               	addlw	-1
  3736  0403  1D03               	skipz
  3737  0404  2BFD               	goto	u1285
  3738  0405                     l1592:
  3739  0405  3001               	movlw	1
  3740  0406  02AC               	subwf	___lldiv@counter,f
  3741  0407  1D03               	btfss	3,2
  3742  0408  2C0A               	goto	u1291
  3743  0409  2C0B               	goto	u1290
  3744  040A                     u1291:
  3745  040A  2BD2               	goto	l1582
  3746  040B                     u1290:
  3747  040B                     l1594:
  3748  040B  082B               	movf	___lldiv@quotient+3,w
  3749  040C  00A3               	movwf	?___lldiv+3
  3750  040D  082A               	movf	___lldiv@quotient+2,w
  3751  040E  00A2               	movwf	?___lldiv+2
  3752  040F  0829               	movf	___lldiv@quotient+1,w
  3753  0410  00A1               	movwf	?___lldiv+1
  3754  0411  0828               	movf	___lldiv@quotient,w
  3755  0412  00A0               	movwf	?___lldiv
  3756  0413                     l322:
  3757  0413  0008               	return
  3758  0414                     __end_of___lldiv:
  3759  007E                     btemp	set	126	;btemp
  3760  007E                     wtemp0	set	126
  3761                           
  3762                           	psect	idloc
  3763                           
  3764                           ;Config register IDLOC0 @ 0x2000
  3765                           ;	unspecified, using default values
  3766  2000                     	org	8192
  3767  2000  3FFF               	dw	16383
  3768                           
  3769                           ;Config register IDLOC1 @ 0x2001
  3770                           ;	unspecified, using default values
  3771  2001                     	org	8193
  3772  2001  3FFF               	dw	16383
  3773                           
  3774                           ;Config register IDLOC2 @ 0x2002
  3775                           ;	unspecified, using default values
  3776  2002                     	org	8194
  3777  2002  3FFF               	dw	16383
  3778                           
  3779                           ;Config register IDLOC3 @ 0x2003
  3780                           ;	unspecified, using default values
  3781  2003                     	org	8195
  3782  2003  3FFF               	dw	16383
  3783                           
  3784                           	psect	config
  3785                           
  3786                           ;Config register CONFIG @ 0x2007
  3787                           ;	Oscillator Selection bits
  3788                           ;	FOSC = XT, XT oscillator
  3789                           ;	Watchdog Timer Enable bit
  3790                           ;	WDTE = OFF, WDT disabled
  3791                           ;	Power-up Timer Enable bit
  3792                           ;	PWRTE = OFF, PWRT disabled
  3793                           ;	Brown-out Reset Enable bit
  3794                           ;	BOREN = OFF, BOR disabled
  3795                           ;	Low-Voltage (Single-Supply) In-Circuit Serial Programming Enable bit
  3796                           ;	LVP = OFF, RB3 is digital I/O, HV on MCLR must be used for programming
  3797                           ;	Data EEPROM Memory Code Protection bit
  3798                           ;	CPD = OFF, Data EEPROM code protection off
  3799                           ;	Flash Program Memory Write Enable bits
  3800                           ;	WRT = OFF, Write protection off; all program memory may be written to by EECON control
  3801                           ;	In-Circuit Debugger Mode bit
  3802                           ;	DEBUG = 0x1, unprogrammed default
  3803                           ;	Flash Program Memory Code Protection bit
  3804                           ;	CP = OFF, Code protection off
  3805  2007                     	org	8199
  3806  2007  3F39               	dw	16185

Data Sizes:
    Strings     22
    Constant    475
    Data        3
    BSS         6
    Persistent  0
    Stack       0

Auto Spaces:
    Space          Size  Autos    Used
    COMMON           14     14      14
    BANK0            80     31      40
    BANK1            80      0       0
    BANK3            96      0       0
    BANK2            96      0       0

Pointer List with Targets:

    oled_puts@c	PTR const unsigned char  size(2) Largest target is 18
		 -> STR_2(CODE[4]), STR_1(CODE[18]), 


Critical Paths under _main in COMMON

    _SSD1306_PutStretchC->___awdiv
    ___awdiv->___wmul
    _SSD1306_Init->_ssd1306_command
    _SSD1306_ClearDisplay->_ssd1306_command
    _ssd1306_command->_I2C_Write
    _I2C_Initialize->___lldiv
    ___lldiv->___lmul

Critical Paths under _main in BANK0

    _main->_oled_puts
    _oled_puts->_SSD1306_PutStretchC
    _SSD1306_PutStretchC->___awdiv
    _I2C_Initialize->___lldiv

Critical Paths under _main in BANK1

    None.

Critical Paths under _main in BANK3

    None.

Critical Paths under _main in BANK2

    None.

Call Graph Tables:

 ---------------------------------------------------------------------------------
 (Depth) Function   	        Calls       Base Space   Used Autos Params    Refs
 ---------------------------------------------------------------------------------
 (0) _main                                                 3     3      0   11967
                                             28 BANK0      3     3      0
                     _I2C_Initialize
               _SSD1306_ClearDisplay
                     _SSD1306_GotoXY
                       _SSD1306_Init
                          _oled_puts
 ---------------------------------------------------------------------------------
 (1) _oled_puts                                            4     1      3    6351
                                             11 COMMON     1     1      0
                                             25 BANK0      3     0      3
                _SSD1306_PutStretchC
 ---------------------------------------------------------------------------------
 (2) _SSD1306_PutStretchC                                 21    20      1    5980
                                              4 BANK0     21    20      1
                          _I2C_Begin
                            _I2C_End
                          _I2C_Write
                            ___awdiv
                             ___bmul
                            ___lbmod
                             ___wmul
                    _ssd1306_command
 ---------------------------------------------------------------------------------
 (3) ___wmul                                               6     2      4     244
                                              0 COMMON     6     2      4
 ---------------------------------------------------------------------------------
 (3) ___lbmod                                              7     6      1     235
                                              0 COMMON     7     6      1
 ---------------------------------------------------------------------------------
 (3) ___bmul                                               4     3      1    1004
                                              0 COMMON     4     3      1
 ---------------------------------------------------------------------------------
 (3) ___awdiv                                              9     5      4     452
                                              6 COMMON     5     1      4
                                              0 BANK0      4     4      0
                             ___wmul (ARG)
 ---------------------------------------------------------------------------------
 (1) _SSD1306_Init                                         3     2      1    1697
                                              5 COMMON     3     2      1
                    _ssd1306_command
 ---------------------------------------------------------------------------------
 (1) _SSD1306_GotoXY                                       3     2      1     240
                                              0 COMMON     3     2      1
 ---------------------------------------------------------------------------------
 (1) _SSD1306_ClearDisplay                                 4     4      0    3023
                                              5 COMMON     4     4      0
                          _I2C_Begin
                            _I2C_End
                          _I2C_Write
                    _ssd1306_command
 ---------------------------------------------------------------------------------
 (3) _ssd1306_command                                      4     4      0    1511
                                              2 COMMON     3     3      0
                          _I2C_Begin
                            _I2C_End
                          _I2C_Write
 ---------------------------------------------------------------------------------
 (4) _I2C_Write                                            2     0      2    1466
                                              0 COMMON     2     0      2
                           _I2C_Hold
 ---------------------------------------------------------------------------------
 (4) _I2C_End                                              0     0      0       0
                           _I2C_Hold
 ---------------------------------------------------------------------------------
 (4) _I2C_Begin                                            0     0      0       0
                           _I2C_Hold
 ---------------------------------------------------------------------------------
 (5) _I2C_Hold                                             0     0      0       0
 ---------------------------------------------------------------------------------
 (1) _I2C_Initialize                                       8     4      4     656
                                             13 BANK0      8     4      4
                            ___lldiv
                             ___lmul
 ---------------------------------------------------------------------------------
 (2) ___lmul                                              13     5      8     244
                                              0 COMMON    13     5      8
 ---------------------------------------------------------------------------------
 (2) ___lldiv                                             14     6      8     314
                                             13 COMMON     1     1      0
                                              0 BANK0     13     5      8
                             ___lmul (ARG)
 ---------------------------------------------------------------------------------
 Estimated maximum stack depth 5
 ---------------------------------------------------------------------------------

 Call Graph Graphs:

 _main (ROOT)
   _I2C_Initialize
     ___lldiv
       ___lmul (ARG)
     ___lmul
   _SSD1306_ClearDisplay
     _I2C_Begin
       _I2C_Hold
     _I2C_End
       _I2C_Hold
     _I2C_Write
       _I2C_Hold
     _ssd1306_command
       _I2C_Begin
       _I2C_End
       _I2C_Write
   _SSD1306_GotoXY
   _SSD1306_Init
     _ssd1306_command
   _oled_puts
     _SSD1306_PutStretchC
       _I2C_Begin
       _I2C_End
       _I2C_Write
       ___awdiv
         ___wmul (ARG)
       ___bmul
       ___lbmod
       ___wmul
       _ssd1306_command

 Address spaces:
Name               Size   Autos  Total    Cost      Usage
BANK3               60      0       0       9        0.0%
BITBANK3            60      0       0       8        0.0%
SFR3                 0      0       0       4        0.0%
BITSFR3              0      0       0       4        0.0%
BANK2               60      0       0      11        0.0%
BITBANK2            60      0       0      10        0.0%
SFR2                 0      0       0       5        0.0%
BITSFR2              0      0       0       5        0.0%
BANK1               50      0       0       7        0.0%
BITBANK1            50      0       0       6        0.0%
SFR1                 0      0       0       2        0.0%
BITSFR1              0      0       0       2        0.0%
BANK0               50     1F      28       5       50.0%
BITBANK0            50      0       0       4        0.0%
SFR0                 0      0       0       1        0.0%
BITSFR0              0      0       0       1        0.0%
COMMON               E      E       E       1      100.0%
BITCOMMON            E      0       0       0        0.0%
CODE                 0      0       0       0        0.0%
DATA                 0      0      36      12        0.0%
ABS                  0      0      36       3        0.0%
NULL                 0      0       0       0        0.0%
STACK                0      0       0       2        0.0%
EEDATA             100      0       0       0        0.0%


Microchip Technology PIC Macro Assembler V2.36 build 20220127204148 
Symbol Table                                                                                   Tue Aug 01 21:43:51 2023

                           pc 0002                ___bmul@product 0072                            l33 01DF  
                          l42 01D2                            l27 034C                            l36 01BF  
                          l39 01C8                            l80 0549                            l82 0585  
                          l76 02B3                            l84 059D                            l85 05C1  
                ___awdiv@sign 0021                            fsr 0004           ___wmul@multiplicand 0072  
                         l121 020D                           l300 02F9                           l140 05EE  
                         l312 01F4                           l322 0413                           l170 07E3  
                         l181 03AB                           l192 0285                           l286 021A  
                         l439 047C                           l288 0232                           l496 0252  
                         l498 0259                           _PEN 048A                           u820 022E  
                         _SEN 0488                           u821 022D                           u805 021B  
                         u910 045A                           u830 01E6                           u911 0459  
                         u831 01E5                           u815 0222                           u840 01F3  
                         u905 044A                           u841 01F2                           u770 01DB  
                         u930 046E                           u850 041B                           u771 01DA  
                         u931 046D                           u915 0456                           u851 041A  
                         u780 01DF                           u940 0473                           u860 0426  
                         u781 01DE                           u941 0472                           u925 0462  
                         u861 0425                           u870 0437                           u790 0214  
                         u871 0436                           u791 0213                           u960 0250  
                         u961 024F                           u890 0449                           u970 0258  
                         u891 0448                           u971 0257                           u955 023C  
                         u980 05D9                           u885 043B                           u981 05D8  
                         u990 05DF                           u991 05DE               __end_of_I2C_End 01C9  
                         fsr0 0004                           indf 0000                          l1320 01D3  
                        l1400 0445                          l1322 01DB                          l1330 01C5  
                        l1410 0468                          l1402 0449                          l1324 01B7  
                        l1332 01C9                          l1340 028C                          l1404 045A  
                        l1412 046E                          l1420 0234                          l1500 06FF  
                        l1318 01D3                          l1326 01BC                          l1334 01CE  
                        l1342 029A                          l1414 0473                          l1406 0460  
                        l1430 0250                          l1422 0238                          l1350 0210  
                        l1510 0712                          l1502 0704                          l1600 02FE  
                        l1328 01C0                          l1344 02A2                          l1336 0287  
                        l1416 0478                          l1408 0461                          l1432 0258  
                        l1424 0239                          l1352 0214                          l1520 0775  
                        l1512 0721                          l1504 0711                          l1440 05D9  
                        l1602 0302                          l1346 02AE                          l1338 0287  
                        l1610 0501                          l1370 01EC                          l1362 01E1  
                        l1426 0248                          l1354 0221                          l1530 0789  
                        l1514 0723                          l1522 077B                          l1450 05F2  
                        l1442 05DF                          l1604 0305                          l1620 051F  
                        l1612 0507                          l1380 041B                          l1372 01F3  
                        l1364 01E2                          l1428 024A                          l1356 0228  
                        l1348 020E                          l1532 0799                          l1524 077F  
                        l1516 0760                          l1540 07AF                          l1460 0627  
                        l1452 0603                          l1444 05E3                          l1436 05C5  
                        l1606 034B                          l1630 053C                          l1622 0525  
                        l1614 050D                          l1390 042F                          l1382 0420  
                        l1366 01E6                          l1358 022E                          l1550 07CC  
                        l1542 07B5                          l1534 079F                          l1526 0785  
                        l1518 0771                          l1470 064A                          l1462 0629  
                        l1454 0609                          l1446 05E8                          l1438 05D1  
                        l1560 02B4                          l1640 058B                          l1632 0543  
                        l1624 052B                          l1616 0513                          l1608 04F7  
                        l1392 0431                          l1384 0422                          l1376 0414  
                        l1368 01EA                          l1552 07CE                          l1544 07BB  
                        l1536 07A5                          l1528 0787                          l1480 068A  
                        l1472 066C                          l1464 062E                          l1456 060D  
                        l1448 05F0                          l1570 02F1                          l1562 02BC  
                        l1650 0203                          l1642 0590                          l1634 0573  
                        l1626 0531                          l1618 0519                          l1394 0437  
                        l1386 0426                          l1378 0417                          l1554 07D3  
                        l1546 07C0                          l1538 07A9                          l1490 06A4  
                        l1482 0698                          l1474 0672                          l1466 0632  
                        l1458 061F                          l1580 03CE                          l1564 02C0  
                        l1660 038F                          l1652 034D                          l1644 0597  
                        l1636 0578                          l1628 0537                          l1396 043A  
                        l1388 042B                          l1556 07D7                          l1548 07C6  
                        l1492 06B2                          l1484 06A1                          l1476 067B  
                        l1468 0638                          l1820 047D                          l1590 03FC  
                        l1582 03D2                          l1574 03AC                          l1566 02D7  
                        l1662 0397                          l1654 038D                          l1646 01F6  
                        l1638 057F                          l1398 0441                          l1558 07DD  
                        l1494 06C2                          l1478 0685                          l1670 025B  
                        l1830 04AE                          l1822 0480                          l1592 0405  
                        l1584 03DB                          l1576 03BE                          l1568 02E0  
                        l1664 039D                          l1648 01FC                          l1496 06D9  
                        l1672 026D                          l1840 04E4                          l1832 04B4  
                        l1824 048E                          l1586 03ED                          l1578 03C1  
                        l1594 040B                          l1666 03A6                          l1498 06E9  
                        l1674 0275                          l1834 04BC                          l1826 049D  
                        l1588 03FB                          l1668 025A                          l1836 04C9  
                        l1828 04A9                          l1598 02FA                          l1838 04D5  
                        STR_1 09ED                          STR_2 09FF              ??_SSD1306_GotoXY 0071  
                        u1000 05E8                          u1001 05E7                          u1010 05EE  
                        u1011 05ED                          u1020 0603                          u1021 0602  
                        u1110 077B                          u1030 061F                          u1111 077A  
                        u1031 061E                          u1120 0785                          u1104 0766  
                        u1040 0627                          u1121 0784                          u1105 0764  
                        u1041 0626                          u1130 07A5                          u1050 062E  
                        u1131 07A4                          u1051 062D                          u1035 061B  
                        u1220 02F1                          u1300 0315                          u1140 07AF  
                        u1060 06B2                          u1221 02F0                          u1205 02D9  
                        u1141 07AE                          u1061 06B1                          u1230 03BE  
                        u1310 053C                          u1150 07BB                          u1070 0704  
                        u1231 03BD                          u1215 02E1                          u1311 053B  
                        u1151 07BA                          u1071 0703                          u1320 0578  
                        u1160 07CC                          u1305 0310                          u1321 0577  
                        u1161 07CB                          u1250 03D2                          u1330 0590  
                        u1170 07D3                          u1090 0721                          u1251 03D1  
                        u1331 058F                          u1171 07D2                          u1091 0720  
                        u1180 02C0                          u1340 01FC                          u1084 0718  
                        u1245 03C3                          u1181 02BF                          u1341 01FB  
                        u1085 0716                          u1270 03ED                          u1350 0202  
                        u1271 03EC                          u1191 02C9                          u1351 0201  
                        u1192 02D0                          u1360 03A6                          u1265 03D4  
                        u1193 02D7                          u1361 03A5                          u1290 040B  
                        u1370 0285                          u1291 040A                          u1275 03E9  
                        u1371 0284                          u1285 03FD                          u1627 0488  
                        u1637 04EC                          _RCEN 048B                          _Font 0812  
                        _main 047D              __end_of_I2C_Hold 01E0                          btemp 007E  
                        _wrap 0045                          start 0000             ___bmul@multiplier 0073  
                       ?_main 0070                         _ACKEN 048C                         _ACKDT 048D  
             __end_of___awdiv 047D               __end_of___lbmod 025A               __end_of___lldiv 0414  
             ___awdiv@divisor 0076               ___awdiv@counter 0020                         _PORTD 0008  
                       _TRISD 0088                         _Font2 0911           ___lmul@multiplicand 0074  
           __end_of_I2C_Begin 01C0                         _x_pos 0047                         _y_pos 0046  
           __end_of_I2C_Write 01D3                         pclath 000A                         status 0003  
                       wtemp0 007E               __initialization 07E4                  __end_of_Font 0911  
                __end_of_main 04F6                     ??_I2C_End 0070       SSD1306_PutStretchC@F935 003F  
                      ??_main 003C  __end_of_SSD1306_ClearDisplay 03AC       SSD1306_PutStretchC@offs 0033  
            ___awdiv@dividend 0078                        _SSPADD 0093                        _TRISC3 043B  
                      _TRISC4 043C                        _SSPCON 0014                        _SSPBUF 0013  
               ?_SSD1306_Init 0075                        ___bmul 01E0                        ___lmul 02B4  
                      ___wmul 020E                     ??___awdiv 007A                     ??___lbmod 0071  
                   ??___lldiv 007D                 oled_puts@size 003B              ___awdiv@quotient 0022  
   SSD1306_PutStretchC@bn_116 0034                     ?_I2C_Hold 0070     SSD1306_PutStretchC@font_c 0032  
             ___lbmod@divisor 0070       __end_of__initialization 07FC               ___lbmod@counter 0075  
              ??_SSD1306_Init 0076           ___bmul@multiplicand 0070                 __end_of_Font2 09ED  
              __pcstackCOMMON 0070                  __pidataBANK0 01B4              ssd1306_command@c 0074  
           ??_ssd1306_command 0072         SSD1306_PutStretchC@bn 002F                    ??_I2C_Hold 0070  
                  __pbssBANK0 003F      SSD1306_PutStretchC@i_111 0038      SSD1306_PutStretchC@i_107 0036  
    SSD1306_PutStretchC@i_115 0031          _SSD1306_ClearDisplay 034D                    __pmaintext 047D  
                     ?___bmul 0070                       ?___lmul 0070                       ?___wmul 0070  
                     _I2C_End 01C0                ___lmul@product 0079                       _SSPCON2 0091  
                     _SSPSTAT 0094                    __stringtab 0800                     _I2C_Begin 01B7  
                   _I2C_Write 01C9         ?_SSD1306_ClearDisplay 0070                       ___awdiv 0414  
                     ___lbmod 0233                       ___lldiv 03AC                _I2C_Initialize 02FA  
                     __ptext1 025A                       __ptext2 05C2                       __ptext3 020E  
                     __ptext4 0233                       __ptext5 01E0                       __ptext6 0414  
                     __ptext7 04F6                       __ptext8 01F5                       __ptext9 034D  
        __end_of_SSD1306_Init 05C2             __end_of_oled_puts 0286          end_of_initialization 07FC  
                  ?_I2C_Begin 0070                    ?_I2C_Write 0070         SSD1306_ClearDisplay@i 0077  
             ___lldiv@divisor 0020               ___lldiv@counter 002C        __end_of_I2C_Initialize 034D  
                __pstringtext 0800              ___lbmod@dividend 0074                   ___lbmod@rem 0076  
         _SSD1306_PutStretchC 05C2        ??_SSD1306_ClearDisplay 0075               _ssd1306_command 0286  
SSD1306_PutStretchC@size_mult 0024               ?_I2C_Initialize 002D                __end_of___bmul 01F5  
              __end_of___lmul 02FA                __end_of___wmul 0233          ?_SSD1306_PutStretchC 0024  
         start_initialization 07E4        SSD1306_PutStretchC@pos 002E                   ??_I2C_Begin 0070  
                 ??_I2C_Write 0072                      ??___bmul 0071                      ??___lmul 0078  
                    ??___wmul 0074                   __pdataBANK0 0045                      ?_I2C_End 0070  
       ??_SSD1306_PutStretchC 0025                     ___latbits 0002                 __pcstackBANK0 0020  
        SSD1306_PutStretchC@b 002A          SSD1306_PutStretchC@c 0037          SSD1306_PutStretchC@i 0030  
        SSD1306_PutStretchC@p 0035       __end_of_ssd1306_command 02B4                    oled_puts@c 0039  
              _SSD1306_GotoXY 01F5                  _SSD1306_Init 04F6                     __vccstate 0043  
                    ?___awdiv 0076                      ?___lbmod 0070                      ?___lldiv 0020  
                    _I2C_Hold 01D3                     _oled_puts 025A                ___wmul@product 0074  
      __end_of_SSD1306_GotoXY 020E               SSD1306_GotoXY@x 0072               SSD1306_GotoXY@y 0070  
                 __stringbase 0812             ___wmul@multiplier 0070             ___lmul@multiplier 0070  
            ?_ssd1306_command 0070                    ?_oled_puts 0039               ?_SSD1306_GotoXY 0070  
                    __i2caddr 0044              ??_I2C_Initialize 0031                 I2C_Write@data 0070  
        SSD1306_Init@vccstate 0077            __end_of__stringtab 0812                      __ptext10 0286  
                    __ptext11 01C9                      __ptext12 01C0                      __ptext13 01B7  
                    __ptext14 01D3                      __ptext15 02FA                      __ptext16 02B4  
                    __ptext17 03AC           SSD1306_Init@i2caddr 0075           I2C_Initialize@feq_K 002D  
                 ??_oled_puts 007B              ___lldiv@dividend 0024                     stringcode 080A  
 __end_of_SSD1306_PutStretchC 07E4              ___lldiv@quotient 0028                      stringtab 0800  
